Certificate:
    Data:
        Version: 3 (0x2)
        Serial Number: 4096 (0x1000)
        Signature Algorithm: sha1WithRSAEncryption
        Issuer: C=DE, ST=Hamburg, O=OpenOffice.org, OU=Development, CN=Sub CA 1 Root 4
        Validity
            Not Before: Nov 20 08:44:01 2009 GMT
            Not After : Nov 14 08:44:01 2034 GMT
        Subject: C=DE, ST=Hamburg, O=OpenOffice.org, OU=Development, CN=User 1 Sub CA 1 Root 4
        Subject Public Key Info:
            Public Key Algorithm: rsaEncryption
            RSA Public Key: (1024 bit)
                Modulus (1024 bit):
                    00:c3:55:aa:1b:4f:f6:b4:78:be:ac:61:2a:92:94:
                    73:1b:39:4c:0e:57:7e:da:78:03:7e:65:11:57:97:
                    e6:f4:0d:72:1f:f6:2b:a4:33:f9:5c:bd:2b:25:6c:
                    58:29:73:b9:46:d5:db:e9:03:1d:a2:f8:8e:6e:c2:
                    b5:95:ec:ba:95:c3:ac:2e:c0:b6:40:ba:23:1d:74:
                    75:91:cc:d6:3a:4c:15:4d:15:03:a4:e6:80:4a:93:
                    fe:6c:91:ab:77:60:3b:43:65:21:cd:04:3d:01:71:
                    99:47:28:12:c8:9d:f9:d7:25:7a:30:82:76:c0:27:
                    5e:c3:70:42:54:2a:0a:02:97
                Exponent: 65537 (0x10001)
        X509v3 extensions:
            X509v3 Key Usage: 
                Digital Signature, Non Repudiation, Key Encipherment
            Netscape Comment: 
                OpenSSL Generated Certificate
            X509v3 Subject Key Identifier: 
                D5:2F:1A:60:8E:F9:2E:8F:51:EB:F7:AB:24:47:80:CE:B6:8D:F1:63
            X509v3 Authority Key Identifier: 
                keyid:96:9A:2D:06:F6:76:4F:83:68:7B:9C:69:C4:18:BB:4A:EB:46:38:E4

    Signature Algorithm: sha1WithRSAEncryption
        7a:83:0c:a0:2d:14:52:97:a1:0e:dd:b3:2e:a1:1f:0d:51:e7:
        98:2e:89:9a:36:a3:1b:af:28:95:13:ab:3e:31:2e:f6:fa:5f:
        f7:85:8c:01:7a:1b:25:63:7e:d6:f9:8e:ad:84:9e:42:3e:1d:
        f4:ad:dc:b1:20:91:83:8b:48:ad:34:2a:b9:cc:ae:06:e6:bc:
        e1:05:e6:35:71:ca:43:98:3a:e5:93:52:e1:3c:3a:1b:83:53:
        d3:a6:ba:6a:43:38:00:92:ba:fb:8f:a8:17:46:f9:32:ac:42:
        47:87:7f:2e:ae:76:49:88:55:1e:65:70:6c:d6:35:ab:64:48:
        a9:66
-----BEGIN CERTIFICATE-----
MIICyzCCAjSgAwIBAgICEAAwDQYJKoZIhvcNAQEFBQAwaDELMAkGA1UEBhMCREUx
EDAOBgNVBAgTB0hhbWJ1cmcxFzAVBgNVBAoTDk9wZW5PZmZpY2Uub3JnMRQwEgYD
VQQLEwtEZXZlbG9wbWVudDEYMBYGA1UEAxMPU3ViIENBIDEgUm9vdCA0MB4XDTA5
MTEyMDA4NDQwMVoXDTM0MTExNDA4NDQwMVowbzELMAkGA1UEBhMCREUxEDAOBgNV
BAgTB0hhbWJ1cmcxFzAVBgNVBAoTDk9wZW5PZmZpY2Uub3JnMRQwEgYDVQQLEwtE
ZXZlbG9wbWVudDEfMB0GA1UEAxMWVXNlciAxIFN1YiBDQSAxIFJvb3QgNDCBnzAN
BgkqhkiG9w0BAQEFAAOBjQAwgYkCgYEAw1WqG0/2tHi+rGEqkpRzGzlMDld+2ngD
fmURV5fm9A1yH/YrpDP5XL0rJWxYKXO5RtXb6QMdoviObsK1ley6lcOsLsC2QLoj
HXR1kczWOkwVTRUDpOaASpP+bJGrd2A7Q2UhzQQ9AXGZRygSyJ351yV6MIJ2wCde
w3BCVCoKApcCAwEAAaN9MHswCwYDVR0PBAQDAgXgMCwGCWCGSAGG+EIBDQQfFh1P
cGVuU1NMIEdlbmVyYXRlZCBDZXJ0aWZpY2F0ZTAdBgNVHQ4EFgQU1S8aYI75Lo9R
6/erJEeAzraN8WMwHwYDVR0jBBgwFoAUlpotBvZ2T4Noe5xpxBi7SutGOOQwDQYJ
KoZIhvcNAQEFBQADgYEAeoMMoC0UUpehDt2zLqEfDVHnmC6JmjajG68olROrPjEu
9vpf94WMAXobJWN+1vmOrYSeQj4d9K3csSCRg4tIrTQqucyuBua84QXmNXHKQ5g6
5ZNS4Tw6G4NT06a6akM4AJK6+4+oF0b5MqxCR4d/Lq52SYhVHmVwbNY1q2RIqWY=
-----END CERTIFICATE-----
