Certificate:
    Data:
        Version: 3 (0x2)
        Serial Number: 4097 (0x1001)
        Signature Algorithm: sha1WithRSAEncryption
        Issuer: C=DE, ST=Hamburg, O=OpenOffice.org, OU=Development, CN=Sub CA 1 Root 4
        Validity
            Not Before: Nov 20 08:57:20 2009 GMT
            Not After : Nov 14 08:57:20 2034 GMT
        Subject: C=DE, ST=Hamburg, O=OpenOffice.org, OU=Development, CN=User 2 Sub CA 1 Root 4
        Subject Public Key Info:
            Public Key Algorithm: rsaEncryption
            RSA Public Key: (1024 bit)
                Modulus (1024 bit):
                    00:ab:2a:df:93:6c:f0:b1:34:54:15:5b:06:4e:15:
                    bb:94:53:89:96:96:47:db:43:49:e7:66:d5:6b:53:
                    eb:04:54:d0:96:48:08:8f:8e:cc:70:e1:62:88:6a:
                    f3:ff:bc:65:55:b9:55:a6:29:22:c1:f6:16:9a:01:
                    25:86:a9:72:c8:7c:0f:29:87:b9:14:51:34:d2:fc:
                    01:3e:20:46:dc:54:3f:f3:03:d8:07:e0:6b:0c:78:
                    70:d0:d0:93:83:e2:cf:53:fc:3b:d5:b0:c9:7d:40:
                    8b:ee:5d:d3:30:e9:24:01:1e:b0:ac:de:1a:18:97:
                    a1:0d:58:79:5e:67:cd:99:bf
                Exponent: 65537 (0x10001)
        X509v3 extensions:
            X509v3 Key Usage: 
                Digital Signature, Non Repudiation, Key Encipherment
            Netscape Comment: 
                OpenSSL Generated Certificate
            X509v3 Subject Key Identifier: 
                47:DB:A7:93:38:C2:0F:34:7F:B7:DE:35:C9:23:75:CC:30:93:A4:42
            X509v3 Authority Key Identifier: 
                keyid:96:9A:2D:06:F6:76:4F:83:68:7B:9C:69:C4:18:BB:4A:EB:46:38:E4

    Signature Algorithm: sha1WithRSAEncryption
        97:70:47:74:ce:e1:f6:51:bf:cc:cf:0f:cf:cc:23:75:df:4b:
        3d:36:f0:70:0f:47:5d:c7:96:ad:b0:78:95:89:3a:2a:7a:ba:
        79:45:fe:2f:37:4c:69:76:ab:0a:10:ea:0d:5e:fe:28:04:44:
        9c:f3:8d:43:f5:15:fa:79:be:d3:86:f3:c1:b5:8b:5a:74:a9:
        c5:b7:fe:e8:63:6e:1f:13:3a:c9:49:3b:45:0c:a6:64:b9:07:
        9b:1a:30:09:1d:5e:f0:2b:a9:55:aa:41:fa:85:0d:ef:dd:c3:
        f5:58:52:bf:7f:6d:f4:18:06:f4:5a:71:af:e4:57:b0:0a:6e:
        f6:76
-----BEGIN CERTIFICATE-----
MIICyzCCAjSgAwIBAgICEAEwDQYJKoZIhvcNAQEFBQAwaDELMAkGA1UEBhMCREUx
EDAOBgNVBAgTB0hhbWJ1cmcxFzAVBgNVBAoTDk9wZW5PZmZpY2Uub3JnMRQwEgYD
VQQLEwtEZXZlbG9wbWVudDEYMBYGA1UEAxMPU3ViIENBIDEgUm9vdCA0MB4XDTA5
MTEyMDA4NTcyMFoXDTM0MTExNDA4NTcyMFowbzELMAkGA1UEBhMCREUxEDAOBgNV
BAgTB0hhbWJ1cmcxFzAVBgNVBAoTDk9wZW5PZmZpY2Uub3JnMRQwEgYDVQQLEwtE
ZXZlbG9wbWVudDEfMB0GA1UEAxMWVXNlciAyIFN1YiBDQSAxIFJvb3QgNDCBnzAN
BgkqhkiG9w0BAQEFAAOBjQAwgYkCgYEAqyrfk2zwsTRUFVsGThW7lFOJlpZH20NJ
52bVa1PrBFTQlkgIj47McOFiiGrz/7xlVblVpikiwfYWmgElhqlyyHwPKYe5FFE0
0vwBPiBG3FQ/8wPYB+BrDHhw0NCTg+LPU/w71bDJfUCL7l3TMOkkAR6wrN4aGJeh
DVh5XmfNmb8CAwEAAaN9MHswCwYDVR0PBAQDAgXgMCwGCWCGSAGG+EIBDQQfFh1P
cGVuU1NMIEdlbmVyYXRlZCBDZXJ0aWZpY2F0ZTAdBgNVHQ4EFgQUR9unkzjCDzR/
t941ySN1zDCTpEIwHwYDVR0jBBgwFoAUlpotBvZ2T4Noe5xpxBi7SutGOOQwDQYJ
KoZIhvcNAQEFBQADgYEAl3BHdM7h9lG/zM8Pz8wjdd9LPTbwcA9HXceWrbB4lYk6
Knq6eUX+LzdMaXarChDqDV7+KAREnPONQ/UV+nm+04bzwbWLWnSpxbf+6GNuHxM6
yUk7RQymZLkHmxowCR1e8CupVapB+oUN793D9VhSv39t9BgG9Fpxr+RXsApu9nY=
-----END CERTIFICATE-----
