Certificate:
    Data:
        Version: 3 (0x2)
        Serial Number: 4099 (0x1003)
        Signature Algorithm: sha1WithRSAEncryption
        Issuer: C=DE, ST=Hamburg, O=OpenOffice.org, OU=Development, CN=Root 11
        Validity
            Not Before: Jan 18 15:39:42 2010 GMT
            Not After : Jan 12 15:39:42 2035 GMT
        Subject: C=DE, ST=Hamburg, O=OpenOffice.org, OU=Development, CN=\x01y\x01z\x01{\x00 \x03\xA6\x03\xA7\x03\xA8\x03\xA9
        Subject Public Key Info:
            Public Key Algorithm: rsaEncryption
            RSA Public Key: (1024 bit)
                Modulus (1024 bit):
                    00:d6:d8:62:3c:69:c9:dd:93:b3:e9:65:63:89:03:
                    4e:f8:8a:e1:8b:9d:92:c6:43:ca:8e:af:fd:6e:9c:
                    c7:66:31:48:f4:ce:5e:be:38:c5:6c:1b:48:c9:61:
                    f5:78:8a:e9:74:ac:a8:98:9c:83:f9:b0:74:e3:25:
                    7c:5a:bb:df:5f:73:ef:fc:a0:dc:6a:ac:07:a2:b8:
                    52:ea:7a:42:ba:9f:74:3c:00:cc:26:46:ba:90:5d:
                    45:78:02:57:e7:47:9f:8e:94:9c:5a:31:ab:f3:ff:
                    bc:9f:7f:d9:b0:a6:f6:86:70:a6:9d:52:ff:c8:19:
                    47:88:75:78:6a:73:d5:97:e9
                Exponent: 65537 (0x10001)
        X509v3 extensions:
            X509v3 Key Usage: 
                Digital Signature, Non Repudiation, Key Encipherment
            X509v3 Subject Key Identifier: 
                E3:01:F6:1E:51:6D:FC:DB:BF:82:A9:12:21:4B:E2:46:FF:E8:EE:FF
            X509v3 Authority Key Identifier: 
                keyid:E8:6A:BB:C2:90:EA:6C:70:22:3E:F6:F6:48:1B:03:E6:BE:B7:A6:55

            X509v3 Subject Alternative Name: 
                DirName:/CN=User 1 Root 11
    Signature Algorithm: sha1WithRSAEncryption
        68:f0:88:18:d5:98:63:da:42:39:47:bf:51:22:f6:0b:8e:46:
        b0:8c:83:b0:4d:07:a4:e3:a9:66:76:4d:41:23:1a:6b:dc:d8:
        d1:85:b1:bf:4f:f9:e6:01:4a:36:a9:a3:26:2d:0b:33:cc:36:
        97:c6:40:b6:77:26:1c:06:f2:1b:fa:0a:ef:5c:61:8d:0d:9c:
        3c:d3:0f:db:dd:60:69:8c:24:c6:70:bc:f8:3b:38:19:90:7a:
        f3:4f:7e:7c:b7:69:b6:0f:55:e1:4b:da:77:cd:b1:fe:5f:f1:
        c1:8a:f8:3d:26:10:3d:40:6f:83:17:0a:d8:dd:da:a1:27:10:
        a1:73
-----BEGIN CERTIFICATE-----
MIICtzCCAiCgAwIBAgICEAMwDQYJKoZIhvcNAQEFBQAwYDELMAkGA1UEBhMCREUx
EDAOBgNVBAgTB0hhbWJ1cmcxFzAVBgNVBAoTDk9wZW5PZmZpY2Uub3JnMRQwEgYD
VQQLEwtEZXZlbG9wbWVudDEQMA4GA1UEAxMHUm9vdCAxMTAeFw0xMDAxMTgxNTM5
NDJaFw0zNTAxMTIxNTM5NDJaMGkxCzAJBgNVBAYTAkRFMRAwDgYDVQQIEwdIYW1i
dXJnMRcwFQYDVQQKEw5PcGVuT2ZmaWNlLm9yZzEUMBIGA1UECxMLRGV2ZWxvcG1l
bnQxGTAXBgNVBAMeEAF5AXoBewAgA6YDpwOoA6kwgZ8wDQYJKoZIhvcNAQEBBQAD
gY0AMIGJAoGBANbYYjxpyd2Ts+llY4kDTviK4YudksZDyo6v/W6cx2YxSPTOXr44
xWwbSMlh9XiK6XSsqJicg/mwdOMlfFq7319z7/yg3GqsB6K4Uup6QrqfdDwAzCZG
upBdRXgCV+dHn46UnFoxq/P/vJ9/2bCm9oZwpp1S/8gZR4h1eGpz1ZfpAgMBAAGj
dzB1MAsGA1UdDwQEAwIF4DAdBgNVHQ4EFgQU4wH2HlFt/Nu/gqkSIUviRv/o7v8w
HwYDVR0jBBgwFoAU6Gq7wpDqbHAiPvb2SBsD5r63plUwJgYDVR0RBB8wHaQbMBkx
FzAVBgNVBAMTDlVzZXIgMSBSb290IDExMA0GCSqGSIb3DQEBBQUAA4GBAGjwiBjV
mGPaQjlHv1Ei9guORrCMg7BNB6TjqWZ2TUEjGmvc2NGFsb9P+eYBSjapoyYtCzPM
NpfGQLZ3JhwG8hv6Cu9cYY0NnDzTD9vdYGmMJMZwvPg7OBmQevNPfny3abYPVeFL
2nfNsf5f8cGK+D0mED1Ab4MXCtjd2qEnEKFz
-----END CERTIFICATE-----
