Certificate:
    Data:
        Version: 3 (0x2)
        Serial Number: 4109 (0x100d)
        Signature Algorithm: sha1WithRSAEncryption
        Issuer: C=DE, ST=Hamburg, O=OpenOffice.org, OU=Development, CN=Root 11
        Validity
            Not Before: Jan 19 09:51:10 2010 GMT
            Not After : Jan 13 09:51:10 2035 GMT
        Subject: C=DE, ST=Hamburg, O=OpenOffice.org, OU=Development, CN=\x00U\x00s\x00e\x00r\x00 \x001\x002\x00,\x00 \x00e\x00n\x00d\x00i\x00n\x00g\x00 \x00q\x00u\x00o\x00t\x00e\x00"
        Subject Public Key Info:
            Public Key Algorithm: rsaEncryption
            RSA Public Key: (1024 bit)
                Modulus (1024 bit):
                    00:bf:4f:93:6b:6b:86:76:30:31:3b:0e:eb:b7:a6:
                    b9:a3:3e:84:ea:d5:31:50:5a:df:f4:3f:67:11:5a:
                    a5:28:23:58:37:67:a5:5c:72:6d:f2:fc:80:81:55:
                    78:86:28:e9:60:c2:0a:d0:17:3c:3a:e9:a8:01:71:
                    64:b8:27:f4:42:e0:d7:69:f5:4e:ef:14:07:69:fd:
                    de:7b:af:c8:a4:0c:9c:56:00:8b:76:67:d1:ba:a9:
                    e7:40:63:77:da:44:d3:89:5c:a7:5a:ea:d5:f3:9b:
                    15:43:f3:08:2d:bc:8a:bf:4a:5b:57:01:f0:c7:97:
                    fe:b0:93:b2:1b:79:a0:4e:ad
                Exponent: 65537 (0x10001)
        X509v3 extensions:
            X509v3 Key Usage: 
                Digital Signature, Non Repudiation, Key Encipherment
            X509v3 Subject Key Identifier: 
                0A:A2:A6:09:88:23:56:82:9E:60:8B:79:23:61:CA:BF:D4:F7:ED:A9
            X509v3 Authority Key Identifier: 
                keyid:E8:6A:BB:C2:90:EA:6C:70:22:3E:F6:F6:48:1B:03:E6:BE:B7:A6:55

            X509v3 Subject Alternative Name: 
                DirName:/CN=User 12 Root 11
    Signature Algorithm: sha1WithRSAEncryption
        64:3e:b6:a6:5e:0d:6f:b3:e7:f6:c7:1f:4a:48:96:4c:fe:13:
        3c:4a:7b:e7:46:51:56:45:66:02:e4:79:1a:7f:15:a4:e9:5b:
        f7:4c:68:cf:cf:b0:7b:e2:ba:57:37:23:c6:cd:ba:75:85:e8:
        eb:d5:ca:a2:6d:9a:75:84:4b:7b:47:38:58:bc:0a:4b:cc:2c:
        2a:0d:eb:7e:ac:36:6f:0b:a5:26:b7:d3:0b:0f:e7:cc:26:db:
        bb:01:48:5b:38:49:f5:3e:2d:75:c0:d6:11:ad:3e:a0:b6:8a:
        8e:7f:4d:10:2c:7b:d7:03:0d:de:da:6b:e0:07:06:90:73:1f:
        dd:f1
-----BEGIN CERTIFICATE-----
MIIC1TCCAj6gAwIBAgICEA0wDQYJKoZIhvcNAQEFBQAwYDELMAkGA1UEBhMCREUx
EDAOBgNVBAgTB0hhbWJ1cmcxFzAVBgNVBAoTDk9wZW5PZmZpY2Uub3JnMRQwEgYD
VQQLEwtEZXZlbG9wbWVudDEQMA4GA1UEAxMHUm9vdCAxMTAeFw0xMDAxMTkwOTUx
MTBaFw0zNTAxMTMwOTUxMTBaMIGFMQswCQYDVQQGEwJERTEQMA4GA1UECBMHSGFt
YnVyZzEXMBUGA1UEChMOT3Blbk9mZmljZS5vcmcxFDASBgNVBAsTC0RldmVsb3Bt
ZW50MTUwMwYDVQQDHiwAVQBzAGUAcgAgADEAMgAsACAAZQBuAGQAaQBuAGcAIABx
AHUAbwB0AGUAIjCBnzANBgkqhkiG9w0BAQEFAAOBjQAwgYkCgYEAv0+Ta2uGdjAx
Ow7rt6a5oz6E6tUxUFrf9D9nEVqlKCNYN2elXHJt8vyAgVV4hijpYMIK0Bc8Oumo
AXFkuCf0QuDXafVO7xQHaf3ee6/IpAycVgCLdmfRuqnnQGN32kTTiVynWurV85sV
Q/MILbyKv0pbVwHwx5f+sJOyG3mgTq0CAwEAAaN4MHYwCwYDVR0PBAQDAgXgMB0G
A1UdDgQWBBQKoqYJiCNWgp5gi3kjYcq/1PftqTAfBgNVHSMEGDAWgBToarvCkOps
cCI+9vZIGwPmvremVTAnBgNVHREEIDAepBwwGjEYMBYGA1UEAxMPVXNlciAxMiBS
b290IDExMA0GCSqGSIb3DQEBBQUAA4GBAGQ+tqZeDW+z5/bHH0pIlkz+EzxKe+dG
UVZFZgLkeRp/FaTpW/dMaM/PsHviulc3I8bNunWF6OvVyqJtmnWES3tHOFi8CkvM
LCoN636sNm8LpSa30wsP58wm27sBSFs4SfU+LXXA1hGtPqC2io5/TRAse9cDDd7a
a+AHBpBzH93x
-----END CERTIFICATE-----
