Certificate:
    Data:
        Version: 3 (0x2)
        Serial Number: 4128 (0x1020)
        Signature Algorithm: sha1WithRSAEncryption
        Issuer: C=DE, ST=Hamburg, O=OpenOffice.org, OU=Development, CN=Root 11
        Validity
            Not Before: Jan 19 10:28:47 2010 GMT
            Not After : Jan 13 10:28:47 2035 GMT
        Subject: C=DE, ST=Hamburg, O=OpenOffice.org, OU=Development, CN=\x00U\x00s\x00e\x00r\x00 \x003\x001\x00 \x00\\x00"\x00a\x00,\x00b\x00"\x00+\x00C\x00N\x00=\x00U\x00S\x00,\x00 \x00>\x00 \x00\\x00\\x00d\x00e\x00 \x00<
        Subject Public Key Info:
            Public Key Algorithm: rsaEncryption
            RSA Public Key: (1024 bit)
                Modulus (1024 bit):
                    00:ac:02:18:e0:1c:54:bb:76:97:2e:d3:67:78:b7:
                    14:78:46:83:7c:e9:5c:2b:2f:25:bb:bf:90:c0:52:
                    ea:2c:79:d6:9d:af:b5:f8:86:a2:bf:56:9b:0f:33:
                    ed:ef:d2:2c:57:c6:0a:25:b3:f7:9b:a1:7a:3b:75:
                    0b:18:86:23:64:2a:23:b0:60:f1:d8:05:b4:a6:7b:
                    77:21:30:b4:0d:f1:af:e1:fb:d6:88:a8:5b:5d:7e:
                    a2:bf:ce:20:f6:c0:7a:89:f2:0f:33:47:6d:49:0f:
                    3d:59:27:f9:95:c0:3b:a3:1c:18:a1:2d:95:09:e8:
                    d2:95:ac:10:92:fc:db:84:e3
                Exponent: 65537 (0x10001)
        X509v3 extensions:
            X509v3 Key Usage: 
                Digital Signature, Non Repudiation, Key Encipherment
            X509v3 Subject Key Identifier: 
                F8:BA:7E:78:BC:70:33:D3:45:68:37:59:3A:06:AC:65:B1:15:74:F0
            X509v3 Authority Key Identifier: 
                keyid:E8:6A:BB:C2:90:EA:6C:70:22:3E:F6:F6:48:1B:03:E6:BE:B7:A6:55

            X509v3 Subject Alternative Name: 
                DirName:/CN=User 31 Root 11
    Signature Algorithm: sha1WithRSAEncryption
        0f:a8:53:f0:56:76:df:a8:b3:5b:d1:e8:98:62:8f:a6:13:96:
        c3:6b:ca:3f:e1:09:37:54:6f:ac:15:4b:74:0c:6c:3f:fe:de:
        36:58:a2:9d:a0:1f:18:97:2c:1d:bc:c6:df:ee:aa:5b:d3:da:
        2f:51:02:7a:ba:a9:7e:4d:cf:47:16:0b:f1:b1:e1:28:2b:fe:
        a4:9d:50:96:cd:c5:45:09:35:50:93:9b:97:a9:23:2a:5e:f0:
        2e:16:18:3f:50:7a:83:59:c5:6c:79:99:d3:ea:12:ef:15:a9:
        b0:93:1e:4b:26:6c:63:13:7f:d3:5a:0c:4d:0b:f4:51:21:98:
        4f:81
-----BEGIN CERTIFICATE-----
MIIC5TCCAk6gAwIBAgICECAwDQYJKoZIhvcNAQEFBQAwYDELMAkGA1UEBhMCREUx
EDAOBgNVBAgTB0hhbWJ1cmcxFzAVBgNVBAoTDk9wZW5PZmZpY2Uub3JnMRQwEgYD
VQQLEwtEZXZlbG9wbWVudDEQMA4GA1UEAxMHUm9vdCAxMTAeFw0xMDAxMTkxMDI4
NDdaFw0zNTAxMTMxMDI4NDdaMIGVMQswCQYDVQQGEwJERTEQMA4GA1UECBMHSGFt
YnVyZzEXMBUGA1UEChMOT3Blbk9mZmljZS5vcmcxFDASBgNVBAsTC0RldmVsb3Bt
ZW50MUUwQwYDVQQDHjwAVQBzAGUAcgAgADMAMQAgAFwAIgBhACwAYgAiACsAQwBO
AD0AVQBTACwAIAA+ACAAXABcAGQAZQAgADwwgZ8wDQYJKoZIhvcNAQEBBQADgY0A
MIGJAoGBAKwCGOAcVLt2ly7TZ3i3FHhGg3zpXCsvJbu/kMBS6ix51p2vtfiGor9W
mw8z7e/SLFfGCiWz95uhejt1CxiGI2QqI7Bg8dgFtKZ7dyEwtA3xr+H71oioW11+
or/OIPbAeonyDzNHbUkPPVkn+ZXAO6McGKEtlQno0pWsEJL824TjAgMBAAGjeDB2
MAsGA1UdDwQEAwIF4DAdBgNVHQ4EFgQU+Lp+eLxwM9NFaDdZOgasZbEVdPAwHwYD
VR0jBBgwFoAU6Gq7wpDqbHAiPvb2SBsD5r63plUwJwYDVR0RBCAwHqQcMBoxGDAW
BgNVBAMTD1VzZXIgMzEgUm9vdCAxMTANBgkqhkiG9w0BAQUFAAOBgQAPqFPwVnbf
qLNb0eiYYo+mE5bDa8o/4Qk3VG+sFUt0DGw//t42WKKdoB8YlywdvMbf7qpb09ov
UQJ6uql+Tc9HFgvxseEoK/6knVCWzcVFCTVQk5uXqSMqXvAuFhg/UHqDWcVseZnT
6hLvFamwkx5LJmxjE3/TWgxNC/RRIZhPgQ==
-----END CERTIFICATE-----
