Certificate:
    Data:
        Version: 3 (0x2)
        Serial Number: 4096 (0x1000)
        Signature Algorithm: sha1WithRSAEncryption
        Issuer: C=DE, ST=Hamburg, O=OpenOffice.org, OU=Development, CN=Sub CA 1 Root 9
        Validity
            Not Before: Nov 23 14:02:02 2009 GMT
            Not After : Nov 17 14:02:02 2034 GMT
        Subject: C=DE, ST=Hamburg, O=OpenOffice.org, OU=Development, CN=User 1 Sub CA 1 Root 9
        Subject Public Key Info:
            Public Key Algorithm: rsaEncryption
            RSA Public Key: (1024 bit)
                Modulus (1024 bit):
                    00:f2:d3:15:3c:73:42:ce:22:e4:40:3a:6b:02:f6:
                    59:bd:66:0d:87:91:f4:c0:be:a9:ce:33:21:09:d9:
                    4e:4b:03:51:87:c3:e9:75:91:e9:80:5e:fc:a1:f7:
                    43:9b:c6:32:af:6d:77:4b:b6:dc:b1:08:a3:1f:a0:
                    6d:ec:81:12:23:48:36:2d:7a:5a:d0:88:88:49:7c:
                    ce:ae:98:45:d8:ff:9f:15:72:ab:b4:85:f6:a5:23:
                    af:43:e4:64:45:da:20:e1:e0:3e:f2:87:ea:67:ea:
                    0e:08:8a:c8:1c:ef:85:a5:e6:f3:54:68:02:fd:de:
                    bc:4d:a2:eb:7d:0d:7d:80:59
                Exponent: 65537 (0x10001)
        X509v3 extensions:
            X509v3 Key Usage: 
                Digital Signature, Non Repudiation, Key Encipherment
            X509v3 Subject Key Identifier: 
                1B:56:DD:11:CE:38:A0:97:FF:BE:39:9C:AF:F4:60:82:3A:CA:5D:51
            X509v3 Authority Key Identifier: 
                keyid:7B:D3:57:BF:6A:CB:6C:10:81:91:DA:95:DC:88:4F:A5:D0:DB:D1:46

    Signature Algorithm: sha1WithRSAEncryption
        54:5e:40:1d:83:35:67:23:01:28:35:e3:02:7f:9e:9f:ce:83:
        fb:45:dd:5c:96:62:f5:28:45:c8:90:2a:7e:84:88:e9:e9:b7:
        21:17:e0:3b:ea:de:6d:a1:d5:37:90:ae:15:86:30:7f:82:81:
        d1:bb:ca:d2:6c:7c:39:2e:e9:65:57:2b:74:47:04:49:99:74:
        63:c7:03:cc:7d:f4:b0:6e:92:75:bb:aa:28:dc:71:d3:95:73:
        15:f4:4f:38:43:9e:4f:9f:e3:97:5c:8d:dc:1e:ad:ad:1e:b7:
        c2:b2:ca:87:ee:8e:a2:93:12:60:95:1a:fb:bf:42:c8:31:48:
        8a:43
-----BEGIN CERTIFICATE-----
MIICnTCCAgagAwIBAgICEAAwDQYJKoZIhvcNAQEFBQAwaDELMAkGA1UEBhMCREUx
EDAOBgNVBAgTB0hhbWJ1cmcxFzAVBgNVBAoTDk9wZW5PZmZpY2Uub3JnMRQwEgYD
VQQLEwtEZXZlbG9wbWVudDEYMBYGA1UEAxMPU3ViIENBIDEgUm9vdCA5MB4XDTA5
MTEyMzE0MDIwMloXDTM0MTExNzE0MDIwMlowbzELMAkGA1UEBhMCREUxEDAOBgNV
BAgTB0hhbWJ1cmcxFzAVBgNVBAoTDk9wZW5PZmZpY2Uub3JnMRQwEgYDVQQLEwtE
ZXZlbG9wbWVudDEfMB0GA1UEAxMWVXNlciAxIFN1YiBDQSAxIFJvb3QgOTCBnzAN
BgkqhkiG9w0BAQEFAAOBjQAwgYkCgYEA8tMVPHNCziLkQDprAvZZvWYNh5H0wL6p
zjMhCdlOSwNRh8PpdZHpgF78ofdDm8Yyr213S7bcsQijH6Bt7IESI0g2LXpa0IiI
SXzOrphF2P+fFXKrtIX2pSOvQ+RkRdog4eA+8ofqZ+oOCIrIHO+FpebzVGgC/d68
TaLrfQ19gFkCAwEAAaNPME0wCwYDVR0PBAQDAgXgMB0GA1UdDgQWBBQbVt0Rzjig
l/++OZyv9GCCOspdUTAfBgNVHSMEGDAWgBR701e/astsEIGR2pXciE+l0NvRRjAN
BgkqhkiG9w0BAQUFAAOBgQBUXkAdgzVnIwEoNeMCf56fzoP7Rd1clmL1KEXIkCp+
hIjp6bchF+A76t5todU3kK4VhjB/goHRu8rSbHw5LullVyt0RwRJmXRjxwPMffSw
bpJ1u6oo3HHTlXMV9E84Q55Pn+OXXI3cHq2tHrfCssqH7o6ikxJglRr7v0LIMUiK
Qw==
-----END CERTIFICATE-----
