LIBRARY	  gcc3_uno INITINSTANCE TERMINSTANCE
DATA MULTIPLE
DESCRIPTION	'StarView 3.00  680 '
EXPORTS
_GetVersionInfo
_component_canUnload
_uno_initEnvironment
_uno_ext_getMapping

;lmax=20
;smax=_component_canUnload

;__ZTIN4test19TestBridgeExceptionE

__ZTIN10comphelper18OPropertyContainerE
__ZTIN10comphelper24OPropertyContainerHelperE
__ZTIN10comphelper25OPropertyArrayUsageHelperIN9configmgr22OConfigurationProviderEEE
__ZTIN3com3sun4star13configuration17XTemplateInstanceE
__ZTIN3com3sun4star13configuration18XTemplateContainerE
__ZTIN3com3sun4star13configuration29InvalidBootstrapFileExceptionE
__ZTIN3com3sun4star13configuration29MissingBootstrapFileExceptionE
__ZTIN3com3sun4star13configuration31InstallationIncompleteExceptionE
__ZTIN3com3sun4star13configuration32CannotLoadConfigurationExceptionE
__ZTIN3com3sun4star13configuration7backend13XLayerHandlerE
__ZTIN3com3sun4star13configuration7backend14XSchemaHandlerE
__ZTIN3com3sun4star13configuration7backend14XUpdateHandlerE
__ZTIN3com3sun4star13configuration7backend15XCompositeLayerE
__ZTIN3com3sun4star13configuration7backend15XSchemaSupplierE
__ZTIN3com3sun4star13configuration7backend15XUpdatableLayerE
__ZTIN3com3sun4star13configuration7backend16XBackendEntitiesE
__ZTIN3com3sun4star13configuration7backend18XMultiLayerStratumE
__ZTIN3com3sun4star13configuration7backend21BackendSetupExceptionE
__ZTIN3com3sun4star13configuration7backend22BackendAccessExceptionE
__ZTIN3com3sun4star13configuration7backend22CannotConnectExceptionE
__ZTIN3com3sun4star13configuration7backend22MalformedDataExceptionE
__ZTIN3com3sun4star13configuration7backend23ConnectionLostExceptionE
__ZTIN3com3sun4star13configuration7backend23XBackendChangesListenerE
__ZTIN3com3sun4star13configuration7backend23XBackendChangesNotifierE
__ZTIN3com3sun4star13configuration7backend24StratumCreationExceptionE
__ZTIN3com3sun4star13configuration7backend24XVersionedSchemaSupplierE
__ZTIN3com3sun4star13configuration7backend29AuthenticationFailedExceptionE
__ZTIN3com3sun4star13configuration7backend33InsufficientAccessRightsExceptionE
__ZTIN3com3sun4star13configuration7backend39InvalidAuthenticationMechanismExceptionE
__ZTIN3com3sun4star13configuration7backend6XLayerE
__ZTIN3com3sun4star13configuration7backend7XSchemaE
__ZTIN3com3sun4star13configuration7backend8XBackendE
__ZTIN3com3sun4star2io11IOExceptionE
__ZTIN3com3sun4star2io12XInputStreamE
__ZTIN3com3sun4star2io13XOutputStreamE
__ZTIN3com3sun4star2io15XActiveDataSinkE
__ZTIN3com3sun4star2io16XDataInputStreamE
__ZTIN3com3sun4star2io17XActiveDataSourceE
__ZTIN3com3sun4star2io20WrongFormatExceptionE
__ZTIN3com3sun4star2io21NotConnectedExceptionE
__ZTIN3com3sun4star2io22UnexpectedEOFExceptionE
__ZTIN3com3sun4star2io27BufferSizeExceededExceptionE
__ZTIN3com3sun4star3uno10XInterfaceE
__ZTIN3com3sun4star3uno15XCurrentContextE
__ZTIN3com3sun4star3uno16RuntimeExceptionE
__ZTIN3com3sun4star3uno17XComponentContextE
__ZTIN3com3sun4star3uno5XWeakE
__ZTIN3com3sun4star3uno9ExceptionE
__ZTIN3com3sun4star3xml3sax12SAXExceptionE
__ZTIN3com3sun4star3xml3sax14XAttributeListE
__ZTIN3com3sun4star3xml3sax16XDocumentHandlerE
;__ZTIN3com3sun4star4l
__ZTIN3com3sun4star4lang10XComponentE
__ZTIN3com3sun4star4lang10XUnoTunnelE
__ZTIN3com3sun4star4lang12XLocalizableE
__ZTIN3com3sun4star4lang12XServiceInfoE
__ZTIN3com3sun4star4lang13XTypeProviderE
__ZTIN3com3sun4star4lang14XEventListenerE
__ZTIN3com3sun4star4lang15XInitializationE
__ZTIN3com3sun4star4lang17DisposedExceptionE
__ZTIN3com3sun4star4lang18NoSupportExceptionE
__ZTIN3com3sun4star4lang20NullPointerExceptionE
__ZTIN3com3sun4star4lang20XMultiServiceFactoryE
__ZTIN3com3sun4star4lang21XSingleServiceFactoryE
__ZTIN3com3sun4star4lang22IllegalAccessExceptionE
__ZTIN3com3sun4star4lang22WrappedTargetExceptionE
__ZTIN3com3sun4star4lang23XSingleComponentFactoryE
__ZTIN3com3sun4star4lang24IllegalArgumentExceptionE
__ZTIN3com3sun4star4lang29ServiceNotRegisteredExceptionE
__ZTIN3com3sun4star4lang29WrappedTargetRuntimeExceptionE
__ZTIN3com3sun4star4task17XInteractionAbortE
__ZTIN3com3sun4star4task17XInteractionRetryE
__ZTIN3com3sun4star4task19XInteractionApproveE
__ZTIN3com3sun4star4task19XInteractionRequestE
__ZTIN3com3sun4star4task22XInteractionDisapproveE
__ZTIN3com3sun4star4task24XInteractionContinuationE
__ZTIN3com3sun4star4util10XFlushableE
__ZTIN3com3sun4star4util12XRefreshableE
__ZTIN3com3sun4star4util12XTimeStampedE
__ZTIN3com3sun4star4util13XChangesBatchE
__ZTIN3com3sun4star4util13XStringEscapeE
__ZTIN3com3sun4star4util16XChangesNotifierE
__ZTIN3com3sun4star5beans10XExactNameE
__ZTIN3com3sun4star5beans12XPropertySetE
__ZTIN3com3sun4star5beans14XPropertyStateE
__ZTIN3com3sun4star5beans16XFastPropertySetE
__ZTIN3com3sun4star5beans16XPropertySetInfoE
__ZTIN3com3sun4star5beans17XMultiPropertySetE
__ZTIN3com3sun4star5beans18XPropertyWithStateE
__ZTIN3com3sun4star5beans20XMultiPropertyStatesE
__ZTIN3com3sun4star5beans21PropertyVetoExceptionE
__ZTIN3com3sun4star5beans24UnknownPropertyExceptionE
__ZTIN3com3sun4star5beans24XHierarchicalPropertySetE
__ZTIN3com3sun4star5beans29XMultiHierarchicalPropertySetE
__ZTIN3com3sun4star5beans9XPropertyE
__ZTIN3com3sun4star6script22CannotConvertExceptionE
__ZTIN3com3sun4star8registry12XRegistryKeyE
__ZTIN3com3sun4star8registry15XSimpleRegistryE
__ZTIN3com3sun4star8registry21InvalidValueExceptionE
__ZTIN3com3sun4star8registry22MergeConflictExceptionE
__ZTIN3com3sun4star8registry24InvalidRegistryExceptionE
__ZTIN3com3sun4star9container10XContainerE
__ZTIN3com3sun4star9container11XNameAccessE
__ZTIN3com3sun4star9container12XNameReplaceE
__ZTIN3com3sun4star9container14XElementAccessE
__ZTIN3com3sun4star9container14XNameContainerE
__ZTIN3com3sun4star9container17XHierarchicalNameE
__ZTIN3com3sun4star9container21ElementExistExceptionE
__ZTIN3com3sun4star9container22NoSuchElementExceptionE
__ZTIN3com3sun4star9container23XHierarchicalNameAccessE
__ZTIN3com3sun4star9container6XChildE
__ZTIN3com3sun4star9container6XNamedE
__ZTIN3vos10IReferenceE
__ZTIN3vos10OReferenceE
__ZTIN3vos6OTimerE
__ZTIN3vos7OObjectE
__ZTIN3vos7OThreadE
__ZTIN3vos9IRunnableE
__ZTIN4cppu11ImplHelper2IN3com3sun4star8registry15XSimpleRegistryENS3_4util10XFlushableEEE
__ZTIN4cppu11ImplHelper4IN3com3sun4star4lang20XMultiServiceFactoryENS4_12XLocalizableENS3_4util12XRefreshableENS7_10XFlushableEEE
__ZTIN4cppu11ImplHelper6IN3com3sun4star5beans12XPropertySetENS4_17XMultiPropertySetENS4_24XHierarchicalPropertySetENS4_29XMultiHierarchicalPropertySetENS4_14XPropertyStateENS4_20XMultiPropertyStatesEEE
__ZTIN4cppu11ImplHelper6IN3com3sun4star9container11XNameAccessENS4_17XHierarchicalNameENS4_23XHierarchicalNameAccessENS4_10XContainerENS3_5beans10XExactNameENS9_9XPropertyEEE
__ZTIN4cppu11ImplHelper9IN3com3sun4star9container11XNameAccessENS4_17XHierarchicalNameENS4_23XHierarchicalNameAccessENS4_10XContainerENS3_5beans10XExactNameENS9_9XPropertyENS9_16XPropertySetInfoENS3_13configuration18XTemplateCo!_yPkJc2
__ZTIN4cppu11OWeakObjectE
__ZTIN4cppu15WeakImplHelper1IN3com3sun4star13configuration7backend13XLayerHandlerEEE
__ZTIN4cppu15WeakImplHelper1IN3com3sun4star13configuration7backend14XSchemaHandlerEEE
__ZTIN4cppu15WeakImplHelper1IN3com3sun4star13configuration7backend15XCompositeLayerEEE
__ZTIN4cppu15WeakImplHelper1IN3com3sun4star13configuration7backend23XBackendChangesListenerEEE
__ZTIN4cppu15WeakImplHelper1IN3com3sun4star2io13XOutputStreamEEE
__ZTIN4cppu15WeakImplHelper1IN3com3sun4star2io16XDataInputStreamEEE
__ZTIN4cppu15WeakImplHelper1IN3com3sun4star3uno15XCurrentContextEEE
__ZTIN4cppu15WeakImplHelper1IN3com3sun4star3xml3sax14XAttributeListEEE
__ZTIN4cppu15WeakImplHelper1IN3com3sun4star3xml3sax16XDocumentHandlerEEE
__ZTIN4cppu15WeakImplHelper1IN3com3sun4star4lang14XEventListenerEEE
__ZTIN4cppu15WeakImplHelper1IN3com3sun4star4lang23XSingleComponentFactoryEEE
__ZTIN4cppu15WeakImplHelper1IN3com3sun4star4task17XInteractionAbortEEE
__ZTIN4cppu15WeakImplHelper1IN3com3sun4star4task17XInteractionRetryEEE
__ZTIN4cppu15WeakImplHelper1IN3com3sun4star4task19XInteractionApproveEEE
__ZTIN4cppu15WeakImplHelper1IN3com3sun4star4task19XInteractionRequestEEE
__ZTIN4cppu15WeakImplHelper1IN3com3sun4star4task22XInteractionDisapproveEEE
__ZTIN4cppu15WeakImplHelper1IN3com3sun4star5beans16XPropertySetInfoEEE
__ZTIN4cppu15WeakImplHelper1IN3com3sun4star8registry12XRegistryKeyEEE
__ZTIN4cppu15WeakImplHelper2IN3com3sun4star13configuration7backend13XLayerHandlerENS5_6XLayerEEE
__ZTIN4cppu15WeakImplHelper2IN3com3sun4star3uno15XCurrentContextENS3_4lang10XUnoTunnelEEE
__ZTIN4cppu15WeakImplHelper3IN3com3sun4star4lang15XInitializationENS4_12XServiceInfoENS3_13configuration7backend14XUpdateHandlerEEE
__ZTIN4cppu15WeakImplHelper3IN3com3sun4star9container6XChildENS4_6XNamedENS3_4lang12XServiceInfoEEE
__ZTIN4cppu15WeakImplHelper4IN3com3sun4star4lang15XInitializationENS4_12XServiceInfoENS3_2io15XActiveDataSinkENS3_13configuration7backend6XLayerEEE
__ZTIN4cppu15WeakImplHelper4IN3com3sun4star4lang15XInitializationENS4_12XServiceInfoENS3_2io15XActiveDataSinkENS3_13configuration7backend7XSchemaEEE
__ZTIN4cppu15WeakImplHelper4IN3com3sun4star4lang15XInitializationENS4_12XServiceInfoENS3_2io17XActiveDataSourceENS3_13configuration7backend13XLayerHandlerEEE
__ZTIN4cppu15WeakImplHelper5IN3com3sun4star9container6XNamedENS3_4util16XChangesNotifierENS3_4lang10XComponentENS8_12XServiceInfoENS8_12XLocalizableEEE
__ZTIN4cppu15WeakImplHelper6IN3com3sun4star9container6XChildENS4_6XNamedENS3_4lang10XComponentENS7_12XServiceInfoENS3_13configuration17XTemplateInstanceENS7_10XUnoTunnelEEE
__ZTIN4cppu15WeakImplHelper6IN3com3sun4star9container6XNamedENS3_4util16XChangesNotifierENS3_4lang10XComponentENS8_12XServiceInfoENS8_12XLocalizableENS6_13XChangesBatchEEE
__ZTIN4cppu18OPropertySetHelperE
__ZTIN4cppu22ImplInheritanceHelper1IN9configmgr7localbe16LocalStratumBaseEN3com3sun4star13configuration7backend18XMultiLayerStratumEEE
__ZTIN4cppu22ImplInheritanceHelper2IN9configmgr7localbe19LayerPropertyHelperEN3com3sun4star13configuration7backend15XUpdatableLayerENS6_4util12XTimeStampedEEE
__ZTIN4cppu22ImplInheritanceHelper2IN9configmgr7localbe19LayerPropertyHelperEN3com3sun4star13configuration7backend6XLayerENS6_4util12XTimeStampedEEE
__ZTIN4cppu22ImplInheritanceHelper3IN9configmgr7localbe19LayerPropertyHelperEN3com3sun4star13configuration7backend15XUpdatableLayerENS8_15XCompositeLayerENS6_4util12XTimeStampedEEE
__ZTIN4cppu24WeakComponentImplHelper1IN3com3sun4star4lang12XServiceInfoEEE
__ZTIN4cppu24WeakComponentImplHelper2IN3com3sun4star4lang20XMultiServiceFactoryENS4_12XServiceInfoEEE
__ZTIN4cppu24WeakComponentImplHelper3IN3com3sun4star13configuration7backend24XVersionedSchemaSupplierENS3_4lang15XInitializationENS7_12XServiceInfoEEE
__ZTIN4cppu24WeakComponentImplHelper3IN3com3sun4star3uno17XComponentContextENS4_15XCurrentContextENS3_4lang12XServiceInfoEEE
__ZTIN4cppu24WeakComponentImplHelper3IN3com3sun4star4lang15XInitializationENS3_13configuration7backend16XBackendEntitiesENS4_12XServiceInfoEEE
__ZTIN4cppu24WeakComponentImplHelper5IN3com3sun4star13configuration7backend15XSchemaSupplierENS5_18XMultiLayerStratumENS5_16XBackendEntitiesENS3_4lang15XInitializationENS9_12XServiceInfoEEE
__ZTIN4cppu24WeakComponentImplHelper5IN3com3sun4star13configuration7backend8XBackendENS5_16XBackendEntitiesENS5_15XSchemaSupplierENS3_4lang15XInitializationENS9_12XServiceInfoEEE
__ZTIN4cppu24WeakComponentImplHelper7IN3com3sun4star13configuration7backend8XBackendENS5_16XBackendEntitiesENS5_24XVersionedSchemaSupplierENS5_23XBackendChangesNotifierENS5_23XBackendChangesListenerENS3_4lang15XInitializationEN!_7c1rO0
__ZTIN4cppu27WeakComponentImplHelperBaseE
__ZTIN9configmgr10BasicGroupE
__ZTIN9configmgr10IInterfaceE
__ZTIN9configmgr10NodeActionE
__ZTIN9configmgr10RefcountedE
__ZTIN9configmgr10RemoveNodeE
__ZTIN9configmgr10SearchNodeE
__ZTIN9configmgr11NoncopyableE
__ZTIN9configmgr11TreeManagerE
__ZTIN9configmgr11TreeUpdaterE
__ZTIN9configmgr11ValueChangeE
__ZTIN9configmgr12CollectNamesE
__ZTIN9configmgr12ITreeManagerE
__ZTIN9configmgr12ONameCreatorE
__ZTIN9configmgr12OPathCreatorINS_13configuration12AbsolutePathEEE
__ZTIN9configmgr12OPathCreatorINS_13configuration12RelativePathEEE
__ZTIN9configmgr13BasicValueSetE
__ZTIN9configmgr13configuration100_GLOBAL__N__ZN9configmgr13configuration12TemplateName18makeSimpleTypeNameERKN3com3sun4star3uno4TypeE12TypeDetectorE
__ZTIN9configmgr13configuration11InvalidNameE
__ZTIN9configmgr13configuration11NodeVisitorE
__ZTIN9configmgr13configuration11SetNodeImplE
__ZTIN9configmgr13configuration12TypeMismatchE
__ZTIN9configmgr13configuration13GroupNodeImplE
__ZTIN9configmgr13configuration14SetNodeVisitorE
__ZTIN9configmgr13configuration15ValueMemberNode12DeferredImplE
__ZTIN9configmgr13configuration18GroupMemberVisitorE
__ZTIN9configmgr13configuration19ConstraintViolationE
__ZTIN9configmgr13configuration19DeferredSetNodeImplE
__ZTIN9configmgr13configuration19WrappedUnoExceptionE
__ZTIN9configmgr13configuration21DeferredGroupNodeImplE
__ZTIN9configmgr13configuration21TemplateProvider_ImplE
__ZTIN9configmgr13configuration28SpecialTemplateProvider_ImplE
__ZTIN9configmgr13configuration55_GLOBAL__N__ZNK9configmgr13configuration4Tree7getViewEv15CollectValueIDsE
__ZTIN9configmgr13configuration55_GLOBAL__N__ZNK9configmgr13configuration4Tree7getViewEv17SetVisitorAdapterE
__ZTIN9configmgr13configuration55_GLOBAL__N__ZNK9configmgr13configuration4Tree7getViewEv19GroupVisitorAdapterE
__ZTIN9configmgr13configuration55_GLOBAL__N__ZNK9configmgr13configuration4Tree7getViewEv21FindNonDefaultElementE
__ZTIN9configmgr13configuration88_GLOBAL__N__ZN9configmgr13configuration17GroupUpdateHelperC2ERKNS0_4TreeERKNS0_7NodeRefE13NodeDefaulterE
__ZTIN9configmgr13configuration8NodeImplE
__ZTIN9configmgr13configuration8TemplateE
__ZTIN9configmgr13configuration9ExceptionE
__ZTIN9configmgr13INodeListenerE
__ZTIN9configmgr13OInnerSetInfoE
__ZTIN9configmgr13OMergeChangesE
__ZTIN9configmgr13OProviderImplE
__ZTIN9configmgr13PWMutexHolderE
__ZTIN9configmgr13SubtreeChangeE
__ZTIN9configmgr14BasicSetAccessE
__ZTIN9configmgr14OStripDefaultsE
__ZTIN9configmgr15BasicSetElementE
__ZTIN9configmgr15IConfigListenerE
__ZTIN9configmgr15OInnerGroupInfoE
__ZTIN9configmgr15ProviderFactoryE
__ZTIN9configmgr15ProviderWrapperE
__ZTIN9configmgr16BasicGroupAccessE
__ZTIN9configmgr16BasicPropertySetE
__ZTIN9configmgr16BasicRootElementE
__ZTIN9configmgr16BootstrapContextE
__ZTIN9configmgr16ChangeTreeActionE
__ZTIN9configmgr16ComponentContextE
__ZTIN9configmgr16IDefaultProviderE
__ZTIN9configmgr16ITemplateManagerE
__ZTIN9configmgr16NodeModificationE
__ZTIN9configmgr16OMergeRemoveNodeE
__ZTIN9configmgr16OPropagateLevelsE
__ZTIN9configmgr16UnoContextTunnel6TunnelE
__ZTIN9configmgr17AttributeListImplE
__ZTIN9configmgr17BasicInnerElementE
__ZTIN9configmgr17CacheClientAccessE
__ZTIN9configmgr17ExtendedCacheDataE
__ZTIN9configmgr17OInnerGroupUpdateE
__ZTIN9configmgr17OMergeValueChangeE
__ZTIN9configmgr17TemplateCacheDataE
__ZTIN9configmgr18BasicUpdateElementE
__ZTIN9configmgr18CacheLoadingAccessE
__ZTIN9configmgr18DisposingForwarderE
__ZTIN9configmgr18IConfigBroadcasterE
__ZTIN9configmgr18IConfigTreeManagerE
__ZTIN9configmgr18OSetElementSetInfoE
__ZTIN9configmgr19OInnerTreeSetUpdateE
__ZTIN9configmgr19ORootElementSetInfoE
__ZTIN9configmgr20OCacheWriteScheduler5TimerE
__ZTIN9configmgr20OInnerValueSetUpdateE
__ZTIN9configmgr20OMergeTreeChangeListE
__ZTIN9configmgr20OSetElementGroupInfoE
__ZTIN9configmgr20ServiceComponentImplE
__ZTIN9configmgr21ORootElementGroupInfoE
__ZTIN9configmgr21OTreeDisposeScheduler5TimerE
__ZTIN9configmgr21SubtreeChangeReferrerE
__ZTIN9configmgr22ChangeTreeModificationE
__ZTIN9configmgr22IConfigDefaultProviderE
__ZTIN9configmgr22IConfigTemplateManagerE
__ZTIN9configmgr22OConfigurationProviderE
__ZTIN9configmgr22OConfigurationRegistryE
__ZTIN9configmgr22OSetElementGroupUpdateE
__ZTIN9configmgr23ConfigChangeBroadcasterE
__ZTIN9configmgr23IDefaultableTreeManagerE
__ZTIN9configmgr23ORootElementGroupUpdateE
__ZTIN9configmgr24OSetElementTreeSetUpdateE
__ZTIN9configmgr25OConfigurationRegistryKeyE
__ZTIN9configmgr25ORootElementTreeSetUpdateE
__ZTIN9configmgr25OSetElementValueSetUpdateE
__ZTIN9configmgr26OProviderDisposingListenerE
__ZTIN9configmgr26ORootElementValueSetUpdateE
__ZTIN9configmgr3xml11BasicParserE
__ZTIN9configmgr3xml11LayerWriterE
__ZTIN9configmgr3xml13ElementParser12BadValueTypeE
__ZTIN9configmgr3xml13ParserServiceIN3com3sun4star13configuration7backend6XLayerEEE
__ZTIN9configmgr3xml13ParserServiceIN3com3sun4star13configuration7backend7XSchemaEEE
__ZTIN9configmgr3xml13WriterServiceIN3com3sun4star13configuration7backend13XLayerHandlerEEE
__ZTIN9configmgr3xml18LayerParserServiceE
__ZTIN9configmgr3xml19SchemaParserServiceE
__ZTIN9configmgr4data10SetVisitorE
__ZTIN9configmgr4data11NodeVisitorE
__ZTIN9configmgr4data11TreeSegment4ImplE
__ZTIN9configmgr4data15TreeNodeBuilder12LinkSetNodesE
__ZTIN9configmgr4data20BasicDataTreeBuilderE
__ZTIN9configmgr4data21ConvertingNodeBuilderE
__ZTIN9configmgr4data21DataTreeDefaultMergerE
__ZTIN9configmgr4data22CopyingDataTreeBuilder18ElementListBuilderE
__ZTIN9configmgr4data22CopyingDataTreeBuilderE
__ZTIN9configmgr4data24ConvertingSubnodeBuilderE
__ZTIN9configmgr4data25ConvertingDataTreeBuilder18ElementListBuilderE
__ZTIN9configmgr4data25ConvertingDataTreeBuilderE
__ZTIN9configmgr4view12ViewStrategyE
__ZTIN9configmgr4view18DirectViewStrategyE
__ZTIN9configmgr4view20ReadOnlyViewStrategyE
__ZTIN9configmgr5INodeE
__ZTIN9configmgr6ChangeE
__ZTIN9configmgr6memory11HeapManagerE
__ZTIN9configmgr6memory14SimpleHeapLockE
__ZTIN9configmgr6memory21SimpleHeapManagerBaseE
__ZTIN9configmgr6memory25SimpleCheckingHeapManagerE
__ZTIN9configmgr6memory8DataLockE
__ZTIN9configmgr7AddNodeE
__ZTIN9configmgr7backend10NodeUpdateE
__ZTIN9configmgr7backend11NamedUpdateE
__ZTIN9configmgr7backend11NodeReplaceE
__ZTIN9configmgr7backend11PropertyAddE
__ZTIN9configmgr7backend12ResultHolderINS0_12NodeInstanceEE10RCInstanceE
__ZTIN9configmgr7backend12ResultHolderINS0_16TemplateInstanceEE10RCInstanceE
__ZTIN9configmgr7backend12ResultHolderINS0_17ComponentInstanceEE10RCInstanceE
__ZTIN9configmgr7backend13BackendAccessE
__ZTIN9configmgr7backend13ElementUpdateE
__ZTIN9configmgr7backend13PropertyResetE
__ZTIN9configmgr7backend13SchemaBuilderE
__ZTIN9configmgr7backend13UpdateServiceE
__ZTIN9configmgr7backend14PropertyUpdateE
__ZTIN9configmgr7backend15CacheControllerE
__ZTIN9configmgr7backend16NodeModificationE
__ZTIN9configmgr7backend17BasicUpdateMergerE
__ZTIN9configmgr7backend17BinaryReader_ImplE
__ZTIN9configmgr7backend17INodeDataListenerE
__ZTIN9configmgr7backend17INodeDataProviderE
__ZTIN9configmgr7backend17LayerMergeHandlerE
__ZTIN9configmgr7backend17LayerUpdateMergerE
__ZTIN9configmgr7backend18BasicImportHandlerE
__ZTIN9configmgr7backend18BinaryWriteHandlerE
__ZTIN9configmgr7backend18ImportMergeHandlerE
__ZTIN9configmgr7backend18LayerUpdateHandlerE
__ZTIN9configmgr7backend19ICachedDataListenerE
__ZTIN9configmgr7backend19ICachedDataNotifierE
__ZTIN9configmgr7backend19ICachedDataProviderE
__ZTIN9configmgr7backend19IDirectDataProviderE
__ZTIN9configmgr7backend19IMergedDataProviderE
__ZTIN9configmgr7backend19INodeUpdateProviderE
__ZTIN9configmgr7backend19LayerDefaultRemoverE
__ZTIN9configmgr7backend19MultiStratumBackendE
__ZTIN9configmgr7backend20IDefaultDataProviderE
__ZTIN9configmgr7backend20SingleBackendAdapterE
__ZTIN9configmgr7backend21BackendChangeNotifierE
__ZTIN9configmgr7backend21IDataProviderMetaDataE
__ZTIN9configmgr7backend21ITemplateDataProviderE
__ZTIN9configmgr7backend21OInvalidateTreeThreadE
__ZTIN9configmgr7backend22CacheChangeMulticasterE
__ZTIN9configmgr7backend22IComponentDataProviderE
__ZTIN9configmgr7backend8NodeDropE
__ZTIN9configmgr7localbe16LocalStratumBaseE
__ZTIN9configmgr7localbe17LocalMultiStratumE
__ZTIN9configmgr7localbe18FlatLocalFileLayerE
__ZTIN9configmgr7localbe18LocalSingleBackendE
__ZTIN9configmgr7localbe19BasicLocalFileLayerE
__ZTIN9configmgr7localbe19LayerPropertyHelperE
__ZTIN9configmgr7localbe19LocalSchemaSupplierE
__ZTIN9configmgr7localbe20SimpleLocalFileLayerE
__ZTIN9configmgr7localbe23CompositeLocalFileLayerE
__ZTIN9configmgr7localbe23LocalStratumMutexHolderE
__ZTIN9configmgr7localbe27FullCompositeLocalFileLayerE
__ZTIN9configmgr7localbe28BasicCompositeLocalFileLayerE
__ZTIN9configmgr7SubtreeE
__ZTIN9configmgr8BasicSetE
__ZTIN9configmgr8ISubtreeE
__ZTIN9configmgr8OOptionsE
__ZTIN9configmgr9apihelper15BroadcasterBaseE
__ZTIN9configmgr9apihelper17PropertySetHelperE
__ZTIN9configmgr9apihelper18InteractionRequestE
__ZTIN9configmgr9apihelper23InteractionContinuationIN3com3sun4star4task17XInteractionAbortEEE
__ZTIN9configmgr9apihelper23InteractionContinuationIN3com3sun4star4task17XInteractionRetryEEE
__ZTIN9configmgr9apihelper23InteractionContinuationIN3com3sun4star4task19XInteractionApproveEEE
__ZTIN9configmgr9apihelper23InteractionContinuationIN3com3sun4star4task22XInteractionDisapproveEEE
__ZTIN9configmgr9apihelper24SimpleInteractionRequestE
__ZTIN9configmgr9apihelper31ConfigurationInteractionHandler7ContextE
__ZTIN9configmgr9CacheDataE
__ZTIN9configmgr9configapi10NodeAccessE
__ZTIN9configmgr9configapi10SetElementE
__ZTIN9configmgr9configapi11ApiTreeImpl16ComponentAdapterE
__ZTIN9configmgr9configapi11Broadcaster4ImplE
__ZTIN9configmgr9configapi11NodeElementE
__ZTIN9configmgr9configapi11OSetElementINS0_15NodeGroupAccessEEE
__ZTIN9configmgr9configapi11OSetElementINS0_17NodeSetInfoAccessEEE
__ZTIN9configmgr9configapi11OSetElementINS0_17NodeTreeSetAccessEEE
__ZTIN9configmgr9configapi11OSetElementINS0_18NodeValueSetAccessEEE
__ZTIN9configmgr9configapi11OSetElementINS0_19NodeGroupInfoAccessEEE
__ZTIN9configmgr9configapi11RootElementE
__ZTIN9configmgr9configapi11TreeElementE
__ZTIN9configmgr9configapi12InnerElementE
__ZTIN9configmgr9configapi13NodeSetAccessE
__ZTIN9configmgr9configapi13OInnerElementINS0_15NodeGroupAccessEEE
__ZTIN9configmgr9configapi13OInnerElementINS0_17NodeSetInfoAccessEEE
__ZTIN9configmgr9configapi13OInnerElementINS0_17NodeTreeSetAccessEEE
__ZTIN9configmgr9configapi13OInnerElementINS0_18NodeValueSetAccessEEE
__ZTIN9configmgr9configapi13OInnerElementINS0_19NodeGroupInfoAccessEEE
__ZTIN9configmgr9configapi14ObjectRegistryE
__ZTIN9configmgr9configapi15ApiRootTreeImpl12NodeListenerE
__ZTIN9configmgr9configapi15NodeGroupAccessE
__ZTIN9configmgr9configapi16OReadRootElementINS0_17NodeSetInfoAccessEEE
__ZTIN9configmgr9configapi16OReadRootElementINS0_19NodeGroupInfoAccessEEE
__ZTIN9configmgr9configapi17CollectPropertiesE
__ZTIN9configmgr9configapi17NodeSetInfoAccessE
__ZTIN9configmgr9configapi17NodeTreeSetAccessE
__ZTIN9configmgr9configapi17UpdateRootElementE
__ZTIN9configmgr9configapi18NodeValueSetAccessE
__ZTIN9configmgr9configapi18OUpdateRootElementINS0_15NodeGroupAccessEEE
__ZTIN9configmgr9configapi18OUpdateRootElementINS0_17NodeTreeSetAccessEEE
__ZTIN9configmgr9configapi18OUpdateRootElementINS0_18NodeValueSetAccessEEE
__ZTIN9configmgr9configapi19NodeGroupInfoAccessE
__ZTIN9configmgr9configapi19NodePropertySetInfoE
__ZTIN9configmgr9configapi19UpdateObjectFactoryE
__ZTIN9configmgr9configapi21ReadOnlyObjectFactoryE
__ZTIN9configmgr9configapi7FactoryE
__ZTIN9configmgr9configapi8internal15SearchExactNameE
__ZTIN9configmgr9OProviderE
__ZTIN9configmgr9ValueNodeE
__ZTIN9salhelper21SimpleReferenceObjectE
;__ZTISt9bad_alloc
;__ZTISt9exception


IMPORTS
__ZTIN10comphelper18OPropertyContainerE=configmg.__ZTIN10comphelper18OPropertyContainerE
__ZTIN10comphelper24OPropertyContainerHelperE=configmg.__ZTIN10comphelper24OPropertyContainerHelperE
__ZTIN10comphelper25OPropertyArrayUsageHelperIN9configmgr22OConfigurationProviderEEE=configmg.__ZTIN10comphelper25OPropertyArrayUsageHelperIN9configmgr22OConfigurationProviderEEE
__ZTIN3com3sun4star13configuration17XTemplateInstanceE=configmg.__ZTIN3com3sun4star13configuration17XTemplateInstanceE
__ZTIN3com3sun4star13configuration18XTemplateContainerE=configmg.__ZTIN3com3sun4star13configuration18XTemplateContainerE
__ZTIN3com3sun4star13configuration29InvalidBootstrapFileExceptionE=configmg.__ZTIN3com3sun4star13configuration29InvalidBootstrapFileExceptionE
__ZTIN3com3sun4star13configuration29MissingBootstrapFileExceptionE=configmg.__ZTIN3com3sun4star13configuration29MissingBootstrapFileExceptionE
__ZTIN3com3sun4star13configuration31InstallationIncompleteExceptionE=configmg.__ZTIN3com3sun4star13configuration31InstallationIncompleteExceptionE
__ZTIN3com3sun4star13configuration32CannotLoadConfigurationExceptionE=configmg.__ZTIN3com3sun4star13configuration32CannotLoadConfigurationExceptionE
__ZTIN3com3sun4star13configuration7backend13XLayerHandlerE=configmg.__ZTIN3com3sun4star13configuration7backend13XLayerHandlerE
__ZTIN3com3sun4star13configuration7backend14XLayerImporterE=configmg.__ZTIN3com3sun4star13configuration7backend14XLayerImporterE
__ZTIN3com3sun4star13configuration7backend14XSchemaHandlerE=configmg.__ZTIN3com3sun4star13configuration7backend14XSchemaHandlerE
__ZTIN3com3sun4star13configuration7backend14XUpdateHandlerE=configmg.__ZTIN3com3sun4star13configuration7backend14XUpdateHandlerE
__ZTIN3com3sun4star13configuration7backend15XCompositeLayerE=configmg.__ZTIN3com3sun4star13configuration7backend15XCompositeLayerE
__ZTIN3com3sun4star13configuration7backend15XSchemaSupplierE=configmg.__ZTIN3com3sun4star13configuration7backend15XSchemaSupplierE
__ZTIN3com3sun4star13configuration7backend15XUpdatableLayerE=configmg.__ZTIN3com3sun4star13configuration7backend15XUpdatableLayerE
__ZTIN3com3sun4star13configuration7backend16XBackendEntitiesE=configmg.__ZTIN3com3sun4star13configuration7backend16XBackendEntitiesE
__ZTIN3com3sun4star13configuration7backend18XMultiLayerStratumE=configmg.__ZTIN3com3sun4star13configuration7backend18XMultiLayerStratumE
__ZTIN3com3sun4star13configuration7backend19XSingleLayerStratumE=configmg.__ZTIN3com3sun4star13configuration7backend19XSingleLayerStratumE
__ZTIN3com3sun4star13configuration7backend21BackendSetupExceptionE=configmg.__ZTIN3com3sun4star13configuration7backend21BackendSetupExceptionE
__ZTIN3com3sun4star13configuration7backend22BackendAccessExceptionE=configmg.__ZTIN3com3sun4star13configuration7backend22BackendAccessExceptionE
__ZTIN3com3sun4star13configuration7backend22CannotConnectExceptionE=configmg.__ZTIN3com3sun4star13configuration7backend22CannotConnectExceptionE
__ZTIN3com3sun4star13configuration7backend22MalformedDataExceptionE=configmg.__ZTIN3com3sun4star13configuration7backend22MalformedDataExceptionE
__ZTIN3com3sun4star13configuration7backend23ConnectionLostExceptionE=configmg.__ZTIN3com3sun4star13configuration7backend23ConnectionLostExceptionE
__ZTIN3com3sun4star13configuration7backend23XBackendChangesListenerE=configmg.__ZTIN3com3sun4star13configuration7backend23XBackendChangesListenerE
__ZTIN3com3sun4star13configuration7backend23XBackendChangesNotifierE=configmg.__ZTIN3com3sun4star13configuration7backend23XBackendChangesNotifierE
__ZTIN3com3sun4star13configuration7backend24StratumCreationExceptionE=configmg.__ZTIN3com3sun4star13configuration7backend24StratumCreationExceptionE
__ZTIN3com3sun4star13configuration7backend24XVersionedSchemaSupplierE=configmg.__ZTIN3com3sun4star13configuration7backend24XVersionedSchemaSupplierE
__ZTIN3com3sun4star13configuration7backend29AuthenticationFailedExceptionE=configmg.__ZTIN3com3sun4star13configuration7backend29AuthenticationFailedExceptionE
__ZTIN3com3sun4star13configuration7backend33InsufficientAccessRightsExceptionE=configmg.__ZTIN3com3sun4star13configuration7backend33InsufficientAccessRightsExceptionE
__ZTIN3com3sun4star13configuration7backend39InvalidAuthenticationMechanismExceptionE=configmg.__ZTIN3com3sun4star13configuration7backend39InvalidAuthenticationMechanismExceptionE
__ZTIN3com3sun4star13configuration7backend6XLayerE=configmg.__ZTIN3com3sun4star13configuration7backend6XLayerE
__ZTIN3com3sun4star13configuration7backend7XSchemaE=configmg.__ZTIN3com3sun4star13configuration7backend7XSchemaE
__ZTIN3com3sun4star13configuration7backend8XBackendE=configmg.__ZTIN3com3sun4star13configuration7backend8XBackendE
__ZTIN3com3sun4star2io11IOExceptionE=configmg.__ZTIN3com3sun4star2io11IOExceptionE
__ZTIN3com3sun4star2io12XInputStreamE=configmg.__ZTIN3com3sun4star2io12XInputStreamE
__ZTIN3com3sun4star2io13XOutputStreamE=configmg.__ZTIN3com3sun4star2io13XOutputStreamE
__ZTIN3com3sun4star2io15XActiveDataSinkE=configmg.__ZTIN3com3sun4star2io15XActiveDataSinkE
__ZTIN3com3sun4star2io16XDataInputStreamE=configmg.__ZTIN3com3sun4star2io16XDataInputStreamE
__ZTIN3com3sun4star2io17XActiveDataSourceE=configmg.__ZTIN3com3sun4star2io17XActiveDataSourceE
__ZTIN3com3sun4star2io20WrongFormatExceptionE=configmg.__ZTIN3com3sun4star2io20WrongFormatExceptionE
__ZTIN3com3sun4star2io21NotConnectedExceptionE=configmg.__ZTIN3com3sun4star2io21NotConnectedExceptionE
__ZTIN3com3sun4star2io22UnexpectedEOFExceptionE=configmg.__ZTIN3com3sun4star2io22UnexpectedEOFExceptionE
__ZTIN3com3sun4star2io27BufferSizeExceededExceptionE=configmg.__ZTIN3com3sun4star2io27BufferSizeExceededExceptionE
__ZTIN3com3sun4star3uno10XInterfaceE=configmg.__ZTIN3com3sun4star3uno10XInterfaceE
__ZTIN3com3sun4star3uno15XCurrentContextE=configmg.__ZTIN3com3sun4star3uno15XCurrentContextE
;__ZTIN3com3sun4star3uno16RuntimeExceptionE=configmg.__ZTIN3com3sun4star3uno16RuntimeExceptionE
__ZTIN3com3sun4star3uno17XComponentContextE=configmg.__ZTIN3com3sun4star3uno17XComponentContextE
__ZTIN3com3sun4star3uno5XWeakE=configmg.__ZTIN3com3sun4star3uno5XWeakE
;__ZTIN3com3sun4star3uno9ExceptionE=configmg.__ZTIN3com3sun4star3uno9ExceptionE
__ZTIN3com3sun4star3xml3sax12SAXExceptionE=configmg.__ZTIN3com3sun4star3xml3sax12SAXExceptionE
__ZTIN3com3sun4star3xml3sax14XAttributeListE=configmg.__ZTIN3com3sun4star3xml3sax14XAttributeListE
__ZTIN3com3sun4star3xml3sax16XDocumentHandlerE=configmg.__ZTIN3com3sun4star3xml3sax16XDocumentHandlerE
__ZTIN3com3sun4star4lang10XComponentE=configmg.__ZTIN3com3sun4star4lang10XComponentE
__ZTIN3com3sun4star4lang10XUnoTunnelE=configmg.__ZTIN3com3sun4star4lang10XUnoTunnelE
__ZTIN3com3sun4star4lang12XLocalizableE=configmg.__ZTIN3com3sun4star4lang12XLocalizableE
__ZTIN3com3sun4star4lang12XServiceInfoE=configmg.__ZTIN3com3sun4star4lang12XServiceInfoE
__ZTIN3com3sun4star4lang13XTypeProviderE=configmg.__ZTIN3com3sun4star4lang13XTypeProviderE
__ZTIN3com3sun4star4lang14XEventListenerE=configmg.__ZTIN3com3sun4star4lang14XEventListenerE
__ZTIN3com3sun4star4lang15XInitializationE=configmg.__ZTIN3com3sun4star4lang15XInitializationE
__ZTIN3com3sun4star4lang17DisposedExceptionE=configmg.__ZTIN3com3sun4star4lang17DisposedExceptionE
__ZTIN3com3sun4star4lang18NoSupportExceptionE=configmg.__ZTIN3com3sun4star4lang18NoSupportExceptionE
__ZTIN3com3sun4star4lang20NullPointerExceptionE=configmg.__ZTIN3com3sun4star4lang20NullPointerExceptionE
__ZTIN3com3sun4star4lang20XMultiServiceFactoryE=configmg.__ZTIN3com3sun4star4lang20XMultiServiceFactoryE
__ZTIN3com3sun4star4lang21XSingleServiceFactoryE=configmg.__ZTIN3com3sun4star4lang21XSingleServiceFactoryE
__ZTIN3com3sun4star4lang22IllegalAccessExceptionE=configmg.__ZTIN3com3sun4star4lang22IllegalAccessExceptionE
__ZTIN3com3sun4star4lang22WrappedTargetExceptionE=configmg.__ZTIN3com3sun4star4lang22WrappedTargetExceptionE
__ZTIN3com3sun4star4lang23XSingleComponentFactoryE=configmg.__ZTIN3com3sun4star4lang23XSingleComponentFactoryE
__ZTIN3com3sun4star4lang24IllegalArgumentExceptionE=configmg.__ZTIN3com3sun4star4lang24IllegalArgumentExceptionE
__ZTIN3com3sun4star4lang29ServiceNotRegisteredExceptionE=configmg.__ZTIN3com3sun4star4lang29ServiceNotRegisteredExceptionE
__ZTIN3com3sun4star4lang29WrappedTargetRuntimeExceptionE=configmg.__ZTIN3com3sun4star4lang29WrappedTargetRuntimeExceptionE
__ZTIN3com3sun4star4task17XInteractionAbortE=configmg.__ZTIN3com3sun4star4task17XInteractionAbortE
__ZTIN3com3sun4star4task17XInteractionRetryE=configmg.__ZTIN3com3sun4star4task17XInteractionRetryE
__ZTIN3com3sun4star4task19XInteractionApproveE=configmg.__ZTIN3com3sun4star4task19XInteractionApproveE
__ZTIN3com3sun4star4task19XInteractionRequestE=configmg.__ZTIN3com3sun4star4task19XInteractionRequestE
__ZTIN3com3sun4star4task22XInteractionDisapproveE=configmg.__ZTIN3com3sun4star4task22XInteractionDisapproveE
__ZTIN3com3sun4star4task24XInteractionContinuationE=configmg.__ZTIN3com3sun4star4task24XInteractionContinuationE
__ZTIN3com3sun4star4task4XJobE=configmg.__ZTIN3com3sun4star4task4XJobE
__ZTIN3com3sun4star4util10XFlushableE=configmg.__ZTIN3com3sun4star4util10XFlushableE
__ZTIN3com3sun4star4util12XRefreshableE=configmg.__ZTIN3com3sun4star4util12XRefreshableE
__ZTIN3com3sun4star4util12XTimeStampedE=configmg.__ZTIN3com3sun4star4util12XTimeStampedE
__ZTIN3com3sun4star4util13XChangesBatchE=configmg.__ZTIN3com3sun4star4util13XChangesBatchE
__ZTIN3com3sun4star4util13XStringEscapeE=configmg.__ZTIN3com3sun4star4util13XStringEscapeE
__ZTIN3com3sun4star4util16XChangesNotifierE=configmg.__ZTIN3com3sun4star4util16XChangesNotifierE
__ZTIN3com3sun4star5beans10XExactNameE=configmg.__ZTIN3com3sun4star5beans10XExactNameE
__ZTIN3com3sun4star5beans12XPropertySetE=configmg.__ZTIN3com3sun4star5beans12XPropertySetE
__ZTIN3com3sun4star5beans14XPropertyStateE=configmg.__ZTIN3com3sun4star5beans14XPropertyStateE
__ZTIN3com3sun4star5beans16XFastPropertySetE=configmg.__ZTIN3com3sun4star5beans16XFastPropertySetE
__ZTIN3com3sun4star5beans16XPropertySetInfoE=configmg.__ZTIN3com3sun4star5beans16XPropertySetInfoE
__ZTIN3com3sun4star5beans17XMultiPropertySetE=configmg.__ZTIN3com3sun4star5beans17XMultiPropertySetE
__ZTIN3com3sun4star5beans18XPropertyWithStateE=configmg.__ZTIN3com3sun4star5beans18XPropertyWithStateE
__ZTIN3com3sun4star5beans20XMultiPropertyStatesE=configmg.__ZTIN3com3sun4star5beans20XMultiPropertyStatesE
__ZTIN3com3sun4star5beans21PropertyVetoExceptionE=configmg.__ZTIN3com3sun4star5beans21PropertyVetoExceptionE
__ZTIN3com3sun4star5beans24UnknownPropertyExceptionE=configmg.__ZTIN3com3sun4star5beans24UnknownPropertyExceptionE
__ZTIN3com3sun4star5beans24XHierarchicalPropertySetE=configmg.__ZTIN3com3sun4star5beans24XHierarchicalPropertySetE
__ZTIN3com3sun4star5beans25XPropertiesChangeListenerE=configmg.__ZTIN3com3sun4star5beans25XPropertiesChangeListenerE
__ZTIN3com3sun4star5beans29XMultiHierarchicalPropertySetE=configmg.__ZTIN3com3sun4star5beans29XMultiHierarchicalPropertySetE
__ZTIN3com3sun4star5beans9XPropertyE=configmg.__ZTIN3com3sun4star5beans9XPropertyE
__ZTIN3com3sun4star6script22CannotConvertExceptionE=configmg.__ZTIN3com3sun4star6script22CannotConvertExceptionE
__ZTIN3com3sun4star8registry12XRegistryKeyE=configmg.__ZTIN3com3sun4star8registry12XRegistryKeyE
__ZTIN3com3sun4star8registry15XSimpleRegistryE=configmg.__ZTIN3com3sun4star8registry15XSimpleRegistryE
__ZTIN3com3sun4star8registry21InvalidValueExceptionE=configmg.__ZTIN3com3sun4star8registry21InvalidValueExceptionE
__ZTIN3com3sun4star8registry22MergeConflictExceptionE=configmg.__ZTIN3com3sun4star8registry22MergeConflictExceptionE
__ZTIN3com3sun4star8registry24InvalidRegistryExceptionE=configmg.__ZTIN3com3sun4star8registry24InvalidRegistryExceptionE
__ZTIN3com3sun4star9container10XContainerE=configmg.__ZTIN3com3sun4star9container10XContainerE
__ZTIN3com3sun4star9container11XNameAccessE=configmg.__ZTIN3com3sun4star9container11XNameAccessE
__ZTIN3com3sun4star9container12XNameReplaceE=configmg.__ZTIN3com3sun4star9container12XNameReplaceE
__ZTIN3com3sun4star9container14XElementAccessE=configmg.__ZTIN3com3sun4star9container14XElementAccessE
__ZTIN3com3sun4star9container14XNameContainerE=configmg.__ZTIN3com3sun4star9container14XNameContainerE
__ZTIN3com3sun4star9container17XHierarchicalNameE=configmg.__ZTIN3com3sun4star9container17XHierarchicalNameE
__ZTIN3com3sun4star9container21ElementExistExceptionE=configmg.__ZTIN3com3sun4star9container21ElementExistExceptionE
__ZTIN3com3sun4star9container22NoSuchElementExceptionE=configmg.__ZTIN3com3sun4star9container22NoSuchElementExceptionE
__ZTIN3com3sun4star9container23XHierarchicalNameAccessE=configmg.__ZTIN3com3sun4star9container23XHierarchicalNameAccessE
__ZTIN3com3sun4star9container6XChildE=configmg.__ZTIN3com3sun4star9container6XChildE
__ZTIN3com3sun4star9container6XNamedE=configmg.__ZTIN3com3sun4star9container6XNamedE
__ZTIN3vos10IReferenceE=configmg.__ZTIN3vos10IReferenceE
__ZTIN3vos10OReferenceE=configmg.__ZTIN3vos10OReferenceE
__ZTIN3vos6OTimerE=configmg.__ZTIN3vos6OTimerE
__ZTIN3vos7OObjectE=configmg.__ZTIN3vos7OObjectE
__ZTIN3vos7OThreadE=configmg.__ZTIN3vos7OThreadE
__ZTIN3vos9IRunnableE=configmg.__ZTIN3vos9IRunnableE
__ZTIN4cppu11ImplHelper2IN3com3sun4star8registry15XSimpleRegistryENS3_4util10XFlushableEEE=configmg.__ZTIN4cppu11ImplHelper2IN3com3sun4star8registry15XSimpleRegistryENS3_4util10XFlushableEEE
__ZTIN4cppu11ImplHelper4IN3com3sun4star4lang20XMultiServiceFactoryENS4_12XLocalizableENS3_4util12XRefreshableENS7_10XFlushableEEE=configmg.__ZTIN4cppu11ImplHelper4IN3com3sun4star4lang20XMultiServiceFactoryENS4_12XLocalizableENS3_4util12XRefreshableENS7_10XFlushableEEE
__ZTIN4cppu11ImplHelper6IN3com3sun4star5beans12XPropertySetENS4_17XMultiPropertySetENS4_24XHierarchicalPropertySetENS4_29XMultiHierarchicalPropertySetENS4_14XPropertyStateENS4_20XMultiPropertyStatesEEE=configmg.__ZTIN4cppu11ImplHelper6IN3com3sun4star5beans12XPropertySetENS4_17XMultiPropertySetENS4_24XHierarchicalPropertySetENS4_29XMultiHierarchicalPropertySetENS4_14XPropertyStateENS4_20XMultiPropertyStatesEEE
__ZTIN4cppu11ImplHelper6IN3com3sun4star9container11XNameAccessENS4_17XHierarchicalNameENS4_23XHierarchicalNameAccessENS4_10XContainerENS3_5beans10XExactNameENS9_9XPropertyEEE=configmg.__ZTIN4cppu11ImplHelper6IN3com3sun4star9container11XNameAccessENS4_17XHierarchicalNameENS4_23XHierarchicalNameAccessENS4_10XContainerENS3_5beans10XExactNameENS9_9XPropertyEEE
__ZTIN4cppu11ImplHelper9IN3com3sun4star9container11XNameAccessENS4_17XHierarchicalNameENS4_23XHierarchicalNameAccessENS4_10XContainerENS3_5beans10XExactNameENS9_9XPropertyENS9_16XPropertySetInfoENS3_13configuration18XTemplateCo!_yPkJc2=configmg.__ZTIN4cppu11ImplHelper9IN3com3sun4star9container11XNameAccessENS4_17XHierarchicalNameENS4_23XHierarchicalNameAccessENS4_10XContainerENS3_5beans10XExactNameENS9_9XPropertyENS9_16XPropertySetInfoENS3_13configuration18XTemplateCo!_yPkJc2
__ZTIN4cppu11OWeakObjectE=configmg.__ZTIN4cppu11OWeakObjectE
__ZTIN4cppu15WeakImplHelper1IN3com3sun4star13configuration7backend13XLayerHandlerEEE=configmg.__ZTIN4cppu15WeakImplHelper1IN3com3sun4star13configuration7backend13XLayerHandlerEEE
__ZTIN4cppu15WeakImplHelper1IN3com3sun4star13configuration7backend14XSchemaHandlerEEE=configmg.__ZTIN4cppu15WeakImplHelper1IN3com3sun4star13configuration7backend14XSchemaHandlerEEE
__ZTIN4cppu15WeakImplHelper1IN3com3sun4star13configuration7backend15XCompositeLayerEEE=configmg.__ZTIN4cppu15WeakImplHelper1IN3com3sun4star13configuration7backend15XCompositeLayerEEE
__ZTIN4cppu15WeakImplHelper1IN3com3sun4star13configuration7backend23XBackendChangesListenerEEE=configmg.__ZTIN4cppu15WeakImplHelper1IN3com3sun4star13configuration7backend23XBackendChangesListenerEEE
__ZTIN4cppu15WeakImplHelper1IN3com3sun4star13configuration7backend6XLayerEEE=configmg.__ZTIN4cppu15WeakImplHelper1IN3com3sun4star13configuration7backend6XLayerEEE
__ZTIN4cppu15WeakImplHelper1IN3com3sun4star2io12XInputStreamEEE=configmg.__ZTIN4cppu15WeakImplHelper1IN3com3sun4star2io12XInputStreamEEE
__ZTIN4cppu15WeakImplHelper1IN3com3sun4star2io13XOutputStreamEEE=configmg.__ZTIN4cppu15WeakImplHelper1IN3com3sun4star2io13XOutputStreamEEE
__ZTIN4cppu15WeakImplHelper1IN3com3sun4star2io16XDataInputStreamEEE=configmg.__ZTIN4cppu15WeakImplHelper1IN3com3sun4star2io16XDataInputStreamEEE
__ZTIN4cppu15WeakImplHelper1IN3com3sun4star3uno15XCurrentContextEEE=configmg.__ZTIN4cppu15WeakImplHelper1IN3com3sun4star3uno15XCurrentContextEEE
__ZTIN4cppu15WeakImplHelper1IN3com3sun4star3xml3sax14XAttributeListEEE=configmg.__ZTIN4cppu15WeakImplHelper1IN3com3sun4star3xml3sax14XAttributeListEEE
__ZTIN4cppu15WeakImplHelper1IN3com3sun4star3xml3sax16XDocumentHandlerEEE=configmg.__ZTIN4cppu15WeakImplHelper1IN3com3sun4star3xml3sax16XDocumentHandlerEEE
__ZTIN4cppu15WeakImplHelper1IN3com3sun4star4lang14XEventListenerEEE=configmg.__ZTIN4cppu15WeakImplHelper1IN3com3sun4star4lang14XEventListenerEEE
__ZTIN4cppu15WeakImplHelper1IN3com3sun4star4lang23XSingleComponentFactoryEEE=configmg.__ZTIN4cppu15WeakImplHelper1IN3com3sun4star4lang23XSingleComponentFactoryEEE
__ZTIN4cppu15WeakImplHelper1IN3com3sun4star4task17XInteractionAbortEEE=configmg.__ZTIN4cppu15WeakImplHelper1IN3com3sun4star4task17XInteractionAbortEEE
__ZTIN4cppu15WeakImplHelper1IN3com3sun4star4task17XInteractionRetryEEE=configmg.__ZTIN4cppu15WeakImplHelper1IN3com3sun4star4task17XInteractionRetryEEE
__ZTIN4cppu15WeakImplHelper1IN3com3sun4star4task19XInteractionApproveEEE=configmg.__ZTIN4cppu15WeakImplHelper1IN3com3sun4star4task19XInteractionApproveEEE
__ZTIN4cppu15WeakImplHelper1IN3com3sun4star4task19XInteractionRequestEEE=configmg.__ZTIN4cppu15WeakImplHelper1IN3com3sun4star4task19XInteractionRequestEEE
__ZTIN4cppu15WeakImplHelper1IN3com3sun4star4task22XInteractionDisapproveEEE=configmg.__ZTIN4cppu15WeakImplHelper1IN3com3sun4star4task22XInteractionDisapproveEEE
__ZTIN4cppu15WeakImplHelper1IN3com3sun4star5beans16XPropertySetInfoEEE=configmg.__ZTIN4cppu15WeakImplHelper1IN3com3sun4star5beans16XPropertySetInfoEEE
__ZTIN4cppu15WeakImplHelper1IN3com3sun4star8registry12XRegistryKeyEEE=configmg.__ZTIN4cppu15WeakImplHelper1IN3com3sun4star8registry12XRegistryKeyEEE
__ZTIN4cppu15WeakImplHelper2IN3com3sun4star13configuration7backend13XLayerHandlerENS5_6XLayerEEE=configmg.__ZTIN4cppu15WeakImplHelper2IN3com3sun4star13configuration7backend13XLayerHandlerENS5_6XLayerEEE
__ZTIN4cppu15WeakImplHelper2IN3com3sun4star3uno15XCurrentContextENS3_4lang10XUnoTunnelEEE=configmg.__ZTIN4cppu15WeakImplHelper2IN3com3sun4star3uno15XCurrentContextENS3_4lang10XUnoTunnelEEE
__ZTIN4cppu15WeakImplHelper2IN3com3sun4star4task4XJobENS3_4lang12XServiceInfoEEE=configmg.__ZTIN4cppu15WeakImplHelper2IN3com3sun4star4task4XJobENS3_4lang12XServiceInfoEEE
__ZTIN4cppu15WeakImplHelper3IN3com3sun4star13configuration7backend14XLayerImporterENS3_4lang15XInitializationENS7_12XServiceInfoEEE=configmg.__ZTIN4cppu15WeakImplHelper3IN3com3sun4star13configuration7backend14XLayerImporterENS3_4lang15XInitializationENS7_12XServiceInfoEEE
__ZTIN4cppu15WeakImplHelper3IN3com3sun4star4lang15XInitializationENS4_12XServiceInfoENS3_13configuration7backend14XUpdateHandlerEEE=configmg.__ZTIN4cppu15WeakImplHelper3IN3com3sun4star4lang15XInitializationENS4_12XServiceInfoENS3_13configuration7backend14XUpdateHandlerEEE
__ZTIN4cppu15WeakImplHelper3IN3com3sun4star9container6XChildENS4_6XNamedENS3_4lang12XServiceInfoEEE=configmg.__ZTIN4cppu15WeakImplHelper3IN3com3sun4star9container6XChildENS4_6XNamedENS3_4lang12XServiceInfoEEE
__ZTIN4cppu15WeakImplHelper4IN3com3sun4star4lang15XInitializationENS4_12XServiceInfoENS3_2io15XActiveDataSinkENS3_13configuration7backend6XLayerEEE=configmg.__ZTIN4cppu15WeakImplHelper4IN3com3sun4star4lang15XInitializationENS4_12XServiceInfoENS3_2io15XActiveDataSinkENS3_13configuration7backend6XLayerEEE
__ZTIN4cppu15WeakImplHelper4IN3com3sun4star4lang15XInitializationENS4_12XServiceInfoENS3_2io15XActiveDataSinkENS3_13configuration7backend7XSchemaEEE=configmg.__ZTIN4cppu15WeakImplHelper4IN3com3sun4star4lang15XInitializationENS4_12XServiceInfoENS3_2io15XActiveDataSinkENS3_13configuration7backend7XSchemaEEE
__ZTIN4cppu15WeakImplHelper4IN3com3sun4star4lang15XInitializationENS4_12XServiceInfoENS3_2io17XActiveDataSourceENS3_13configuration7backend13XLayerHandlerEEE=configmg.__ZTIN4cppu15WeakImplHelper4IN3com3sun4star4lang15XInitializationENS4_12XServiceInfoENS3_2io17XActiveDataSourceENS3_13configuration7backend13XLayerHandlerEEE
__ZTIN4cppu15WeakImplHelper5IN3com3sun4star9container6XNamedENS3_4util16XChangesNotifierENS3_4lang10XComponentENS8_12XServiceInfoENS8_12XLocalizableEEE=configmg.__ZTIN4cppu15WeakImplHelper5IN3com3sun4star9container6XNamedENS3_4util16XChangesNotifierENS3_4lang10XComponentENS8_12XServiceInfoENS8_12XLocalizableEEE
__ZTIN4cppu15WeakImplHelper6IN3com3sun4star9container6XChildENS4_6XNamedENS3_4lang10XComponentENS7_12XServiceInfoENS3_13configuration17XTemplateInstanceENS7_10XUnoTunnelEEE=configmg.__ZTIN4cppu15WeakImplHelper6IN3com3sun4star9container6XChildENS4_6XNamedENS3_4lang10XComponentENS7_12XServiceInfoENS3_13configuration17XTemplateInstanceENS7_10XUnoTunnelEEE
__ZTIN4cppu15WeakImplHelper6IN3com3sun4star9container6XNamedENS3_4util16XChangesNotifierENS3_4lang10XComponentENS8_12XServiceInfoENS8_12XLocalizableENS6_13XChangesBatchEEE=configmg.__ZTIN4cppu15WeakImplHelper6IN3com3sun4star9container6XNamedENS3_4util16XChangesNotifierENS3_4lang10XComponentENS8_12XServiceInfoENS8_12XLocalizableENS6_13XChangesBatchEEE
__ZTIN4cppu18OPropertySetHelperE=configmg.__ZTIN4cppu18OPropertySetHelperE
__ZTIN4cppu22ImplInheritanceHelper1IN9configmgr7localbe16LocalStratumBaseEN3com3sun4star13configuration7backend18XMultiLayerStratumEEE=configmg.__ZTIN4cppu22ImplInheritanceHelper1IN9configmgr7localbe16LocalStratumBaseEN3com3sun4star13configuration7backend18XMultiLayerStratumEEE
__ZTIN4cppu22ImplInheritanceHelper1IN9configmgr7localbe16LocalStratumBaseEN3com3sun4star13configuration7backend19XSingleLayerStratumEEE=configmg.__ZTIN4cppu22ImplInheritanceHelper1IN9configmgr7localbe16LocalStratumBaseEN3com3sun4star13configuration7backend19XSingleLayerStratumEEE
__ZTIN4cppu22ImplInheritanceHelper2IN9configmgr7localbe19LayerPropertyHelperEN3com3sun4star13configuration7backend15XUpdatableLayerENS6_4util12XTimeStampedEEE=configmg.__ZTIN4cppu22ImplInheritanceHelper2IN9configmgr7localbe19LayerPropertyHelperEN3com3sun4star13configuration7backend15XUpdatableLayerENS6_4util12XTimeStampedEEE
__ZTIN4cppu22ImplInheritanceHelper2IN9configmgr7localbe19LayerPropertyHelperEN3com3sun4star13configuration7backend6XLayerENS6_4util12XTimeStampedEEE=configmg.__ZTIN4cppu22ImplInheritanceHelper2IN9configmgr7localbe19LayerPropertyHelperEN3com3sun4star13configuration7backend6XLayerENS6_4util12XTimeStampedEEE
__ZTIN4cppu22ImplInheritanceHelper3IN9configmgr7localbe19LayerPropertyHelperEN3com3sun4star13configuration7backend15XUpdatableLayerENS8_15XCompositeLayerENS6_4util12XTimeStampedEEE=configmg.__ZTIN4cppu22ImplInheritanceHelper3IN9configmgr7localbe19LayerPropertyHelperEN3com3sun4star13configuration7backend15XUpdatableLayerENS8_15XCompositeLayerENS6_4util12XTimeStampedEEE
__ZTIN4cppu24WeakComponentImplHelper1IN3com3sun4star4lang12XServiceInfoEEE=configmg.__ZTIN4cppu24WeakComponentImplHelper1IN3com3sun4star4lang12XServiceInfoEEE
__ZTIN4cppu24WeakComponentImplHelper2IN3com3sun4star4lang20XMultiServiceFactoryENS4_12XServiceInfoEEE=configmg.__ZTIN4cppu24WeakComponentImplHelper2IN3com3sun4star4lang20XMultiServiceFactoryENS4_12XServiceInfoEEE
__ZTIN4cppu24WeakComponentImplHelper3IN3com3sun4star13configuration7backend24XVersionedSchemaSupplierENS3_4lang15XInitializationENS7_12XServiceInfoEEE=configmg.__ZTIN4cppu24WeakComponentImplHelper3IN3com3sun4star13configuration7backend24XVersionedSchemaSupplierENS3_4lang15XInitializationENS7_12XServiceInfoEEE
__ZTIN4cppu24WeakComponentImplHelper3IN3com3sun4star3uno17XComponentContextENS4_15XCurrentContextENS3_4lang12XServiceInfoEEE=configmg.__ZTIN4cppu24WeakComponentImplHelper3IN3com3sun4star3uno17XComponentContextENS4_15XCurrentContextENS3_4lang12XServiceInfoEEE
__ZTIN4cppu24WeakComponentImplHelper3IN3com3sun4star4lang15XInitializationENS3_13configuration7backend16XBackendEntitiesENS4_12XServiceInfoEEE=configmg.__ZTIN4cppu24WeakComponentImplHelper3IN3com3sun4star4lang15XInitializationENS3_13configuration7backend16XBackendEntitiesENS4_12XServiceInfoEEE
__ZTIN4cppu24WeakComponentImplHelper5IN3com3sun4star13configuration7backend15XSchemaSupplierENS5_18XMultiLayerStratumENS5_16XBackendEntitiesENS3_4lang15XInitializationENS9_12XServiceInfoEEE=configmg.__ZTIN4cppu24WeakComponentImplHelper5IN3com3sun4star13configuration7backend15XSchemaSupplierENS5_18XMultiLayerStratumENS5_16XBackendEntitiesENS3_4lang15XInitializationENS9_12XServiceInfoEEE
__ZTIN4cppu24WeakComponentImplHelper5IN3com3sun4star13configuration7backend8XBackendENS5_16XBackendEntitiesENS5_15XSchemaSupplierENS3_4lang15XInitializationENS9_12XServiceInfoEEE=configmg.__ZTIN4cppu24WeakComponentImplHelper5IN3com3sun4star13configuration7backend8XBackendENS5_16XBackendEntitiesENS5_15XSchemaSupplierENS3_4lang15XInitializationENS9_12XServiceInfoEEE
__ZTIN4cppu24WeakComponentImplHelper7IN3com3sun4star13configuration7backend8XBackendENS5_16XBackendEntitiesENS5_24XVersionedSchemaSupplierENS5_23XBackendChangesNotifierENS5_23XBackendChangesListenerENS3_4lang15XInitializationEN!_7c1rO0=configmg.__ZTIN4cppu24WeakComponentImplHelper7IN3com3sun4star13configuration7backend8XBackendENS5_16XBackendEntitiesENS5_24XVersionedSchemaSupplierENS5_23XBackendChangesNotifierENS5_23XBackendChangesListenerENS3_4lang15XInitializationEN!_7c1rO0
__ZTIN4cppu27WeakComponentImplHelperBaseE=configmg.__ZTIN4cppu27WeakComponentImplHelperBaseE
__ZTIN9configmgr10BasicGroupE=configmg.__ZTIN9configmgr10BasicGroupE
__ZTIN9configmgr10IInterfaceE=configmg.__ZTIN9configmgr10IInterfaceE
__ZTIN9configmgr10NodeActionE=configmg.__ZTIN9configmgr10NodeActionE
__ZTIN9configmgr10RefcountedE=configmg.__ZTIN9configmgr10RefcountedE
__ZTIN9configmgr10RemoveNodeE=configmg.__ZTIN9configmgr10RemoveNodeE
__ZTIN9configmgr10SearchNodeE=configmg.__ZTIN9configmgr10SearchNodeE
__ZTIN9configmgr11ApplyUpdateE=configmg.__ZTIN9configmgr11ApplyUpdateE
__ZTIN9configmgr11NoncopyableE=configmg.__ZTIN9configmgr11NoncopyableE
__ZTIN9configmgr11TreeManagerE=configmg.__ZTIN9configmgr11TreeManagerE
__ZTIN9configmgr11TreeUpdaterE=configmg.__ZTIN9configmgr11TreeUpdaterE
__ZTIN9configmgr11ValueChangeE=configmg.__ZTIN9configmgr11ValueChangeE
__ZTIN9configmgr12AdjustUpdateE=configmg.__ZTIN9configmgr12AdjustUpdateE
__ZTIN9configmgr12CollectNamesE=configmg.__ZTIN9configmgr12CollectNamesE
__ZTIN9configmgr12ITreeManagerE=configmg.__ZTIN9configmgr12ITreeManagerE
__ZTIN9configmgr12ONameCreatorE=configmg.__ZTIN9configmgr12ONameCreatorE
__ZTIN9configmgr12OPathCreatorINS_13configuration12AbsolutePathEEE=configmg.__ZTIN9configmgr12OPathCreatorINS_13configuration12AbsolutePathEEE
__ZTIN9configmgr12OPathCreatorINS_13configuration12RelativePathEEE=configmg.__ZTIN9configmgr12OPathCreatorINS_13configuration12RelativePathEEE
__ZTIN9configmgr13BasicValueSetE=configmg.__ZTIN9configmgr13BasicValueSetE
__ZTIN9configmgr13INodeListenerE=configmg.__ZTIN9configmgr13INodeListenerE
__ZTIN9configmgr13OInnerSetInfoE=configmg.__ZTIN9configmgr13OInnerSetInfoE
__ZTIN9configmgr13OMergeChangesE=configmg.__ZTIN9configmgr13OMergeChangesE
__ZTIN9configmgr13OProviderImplE=configmg.__ZTIN9configmgr13OProviderImplE
__ZTIN9configmgr13PWMutexHolderE=configmg.__ZTIN9configmgr13PWMutexHolderE
__ZTIN9configmgr13SubtreeChangeE=configmg.__ZTIN9configmgr13SubtreeChangeE
__ZTIN9configmgr13configuration100_GLOBAL__N__ZN9configmgr13configuration12TemplateName18makeSimpleTypeNameERKN3com3sun4star3uno4TypeE12TypeDetectorE=configmg.__ZTIN9configmgr13configuration100_GLOBAL__N__ZN9configmgr13configuration12TemplateName18makeSimpleTypeNameERKN3com3sun4star3uno4TypeE12TypeDetectorE
__ZTIN9configmgr13configuration11InvalidNameE=configmg.__ZTIN9configmgr13configuration11InvalidNameE
__ZTIN9configmgr13configuration11NodeVisitorE=configmg.__ZTIN9configmgr13configuration11NodeVisitorE
__ZTIN9configmgr13configuration11SetNodeImplE=configmg.__ZTIN9configmgr13configuration11SetNodeImplE
__ZTIN9configmgr13configuration12RootTreeImplE=configmg.__ZTIN9configmgr13configuration12RootTreeImplE
__ZTIN9configmgr13configuration12SetResetImplE=configmg.__ZTIN9configmgr13configuration12SetResetImplE
__ZTIN9configmgr13configuration12TypeMismatchE=configmg.__ZTIN9configmgr13configuration12TypeMismatchE
__ZTIN9configmgr13configuration13GroupNodeImplE=configmg.__ZTIN9configmgr13configuration13GroupNodeImplE
__ZTIN9configmgr13configuration13SetChangeImplE=configmg.__ZTIN9configmgr13configuration13SetChangeImplE
__ZTIN9configmgr13configuration13SetInsertImplE=configmg.__ZTIN9configmgr13configuration13SetInsertImplE
__ZTIN9configmgr13configuration13SetRemoveImplE=configmg.__ZTIN9configmgr13configuration13SetRemoveImplE
__ZTIN9configmgr13configuration14CollectChangesE=configmg.__ZTIN9configmgr13configuration14CollectChangesE
__ZTIN9configmgr13configuration14NodeChangeImplE=configmg.__ZTIN9configmgr13configuration14NodeChangeImplE
__ZTIN9configmgr13configuration14SetNodeVisitorE=configmg.__ZTIN9configmgr13configuration14SetNodeVisitorE
__ZTIN9configmgr13configuration14SetReplaceImplE=configmg.__ZTIN9configmgr13configuration14SetReplaceImplE
__ZTIN9configmgr13configuration14ValueResetImplE=configmg.__ZTIN9configmgr13configuration14ValueResetImplE
__ZTIN9configmgr13configuration15ElementTreeImplE=configmg.__ZTIN9configmgr13configuration15ElementTreeImplE
__ZTIN9configmgr13configuration15TreeImplBuilderE=configmg.__ZTIN9configmgr13configuration15TreeImplBuilderE
__ZTIN9configmgr13configuration15ValueChangeImplE=configmg.__ZTIN9configmgr13configuration15ValueChangeImplE
__ZTIN9configmgr13configuration15ValueMemberNode12DeferredImplE=configmg.__ZTIN9configmgr13configuration15ValueMemberNode12DeferredImplE
__ZTIN9configmgr13configuration16ValueReplaceImplE=configmg.__ZTIN9configmgr13configuration16ValueReplaceImplE
__ZTIN9configmgr13configuration18GroupMemberVisitorE=configmg.__ZTIN9configmgr13configuration18GroupMemberVisitorE
__ZTIN9configmgr13configuration19ConstraintViolationE=configmg.__ZTIN9configmgr13configuration19ConstraintViolationE
__ZTIN9configmgr13configuration19DeferredSetNodeImplE=configmg.__ZTIN9configmgr13configuration19DeferredSetNodeImplE
__ZTIN9configmgr13configuration19WrappedUnoExceptionE=configmg.__ZTIN9configmgr13configuration19WrappedUnoExceptionE
__ZTIN9configmgr13configuration20DefaultProviderProxyE=configmg.__ZTIN9configmgr13configuration20DefaultProviderProxyE
__ZTIN9configmgr13configuration20SetElementChangeImplE=configmg.__ZTIN9configmgr13configuration20SetElementChangeImplE
__ZTIN9configmgr13configuration20ValueElementNodeImplE=configmg.__ZTIN9configmgr13configuration20ValueElementNodeImplE
__ZTIN9configmgr13configuration21DeferredGroupNodeImplE=configmg.__ZTIN9configmgr13configuration21DeferredGroupNodeImplE
__ZTIN9configmgr13configuration21TemplateProvider_ImplE=configmg.__ZTIN9configmgr13configuration21TemplateProvider_ImplE
__ZTIN9configmgr13configuration28SpecialTemplateProvider_ImplE=configmg.__ZTIN9configmgr13configuration28SpecialTemplateProvider_ImplE
__ZTIN9configmgr13configuration55_GLOBAL__N__ZNK9configmgr13configuration4Tree7getViewEv15CollectValueIDsE=configmg.__ZTIN9configmgr13configuration55_GLOBAL__N__ZNK9configmgr13configuration4Tree7getViewEv15CollectValueIDsE
__ZTIN9configmgr13configuration55_GLOBAL__N__ZNK9configmgr13configuration4Tree7getViewEv17SetVisitorAdapterE=configmg.__ZTIN9configmgr13configuration55_GLOBAL__N__ZNK9configmgr13configuration4Tree7getViewEv17SetVisitorAdapterE
__ZTIN9configmgr13configuration55_GLOBAL__N__ZNK9configmgr13configuration4Tree7getViewEv19GroupVisitorAdapterE=configmg.__ZTIN9configmgr13configuration55_GLOBAL__N__ZNK9configmgr13configuration4Tree7getViewEv19GroupVisitorAdapterE
__ZTIN9configmgr13configuration55_GLOBAL__N__ZNK9configmgr13configuration4Tree7getViewEv21FindNonDefaultElementE=configmg.__ZTIN9configmgr13configuration55_GLOBAL__N__ZNK9configmgr13configuration4Tree7getViewEv21FindNonDefaultElementE
__ZTIN9configmgr13configuration88_GLOBAL__N__ZN9configmgr13configuration17GroupUpdateHelperC2ERKNS0_4TreeERKNS0_7NodeRefE13NodeDefaulterE=configmg.__ZTIN9configmgr13configuration88_GLOBAL__N__ZN9configmgr13configuration17GroupUpdateHelperC2ERKNS0_4TreeERKNS0_7NodeRefE13NodeDefaulterE
__ZTIN9configmgr13configuration8NodeImplE=configmg.__ZTIN9configmgr13configuration8NodeImplE
__ZTIN9configmgr13configuration8TemplateE=configmg.__ZTIN9configmgr13configuration8TemplateE
__ZTIN9configmgr13configuration8TreeImplE=configmg.__ZTIN9configmgr13configuration8TreeImplE
__ZTIN9configmgr13configuration9ExceptionE=configmg.__ZTIN9configmgr13configuration9ExceptionE
__ZTIN9configmgr14BasicSetAccessE=configmg.__ZTIN9configmgr14BasicSetAccessE
__ZTIN9configmgr14ONodeConverterE=configmg.__ZTIN9configmgr14ONodeConverterE
__ZTIN9configmgr14OStripDefaultsE=configmg.__ZTIN9configmgr14OStripDefaultsE
__ZTIN9configmgr15BasicSetElementE=configmg.__ZTIN9configmgr15BasicSetElementE
__ZTIN9configmgr15IConfigListenerE=configmg.__ZTIN9configmgr15IConfigListenerE
__ZTIN9configmgr15OInnerGroupInfoE=configmg.__ZTIN9configmgr15OInnerGroupInfoE
__ZTIN9configmgr15ProviderFactoryE=configmg.__ZTIN9configmgr15ProviderFactoryE
__ZTIN9configmgr15ProviderWrapperE=configmg.__ZTIN9configmgr15ProviderWrapperE
__ZTIN9configmgr16BasicGroupAccessE=configmg.__ZTIN9configmgr16BasicGroupAccessE
__ZTIN9configmgr16BasicPropertySetE=configmg.__ZTIN9configmgr16BasicPropertySetE
__ZTIN9configmgr16BasicRootElementE=configmg.__ZTIN9configmgr16BasicRootElementE
__ZTIN9configmgr16BootstrapContextE=configmg.__ZTIN9configmgr16BootstrapContextE
__ZTIN9configmgr16ChangeTreeActionE=configmg.__ZTIN9configmgr16ChangeTreeActionE
__ZTIN9configmgr16ComponentContextE=configmg.__ZTIN9configmgr16ComponentContextE
__ZTIN9configmgr16IDefaultProviderE=configmg.__ZTIN9configmgr16IDefaultProviderE
__ZTIN9configmgr16ITemplateManagerE=configmg.__ZTIN9configmgr16ITemplateManagerE
__ZTIN9configmgr16NodeModificationE=configmg.__ZTIN9configmgr16NodeModificationE
__ZTIN9configmgr16OMergeRemoveNodeE=configmg.__ZTIN9configmgr16OMergeRemoveNodeE
__ZTIN9configmgr16OPropagateLevelsE=configmg.__ZTIN9configmgr16OPropagateLevelsE
__ZTIN9configmgr16UnoContextTunnel6TunnelE=configmg.__ZTIN9configmgr16UnoContextTunnel6TunnelE
__ZTIN9configmgr17AttributeListImplE=configmg.__ZTIN9configmgr17AttributeListImplE
__ZTIN9configmgr17BasicInnerElementE=configmg.__ZTIN9configmgr17BasicInnerElementE
__ZTIN9configmgr17CacheClientAccessE=configmg.__ZTIN9configmgr17CacheClientAccessE
__ZTIN9configmgr17ExtendedCacheDataE=configmg.__ZTIN9configmgr17ExtendedCacheDataE
__ZTIN9configmgr17ExtendedCacheLineE=configmg.__ZTIN9configmgr17ExtendedCacheLineE
__ZTIN9configmgr17OInnerGroupUpdateE=configmg.__ZTIN9configmgr17OInnerGroupUpdateE
__ZTIN9configmgr17OMergeValueChangeE=configmg.__ZTIN9configmgr17OMergeValueChangeE
__ZTIN9configmgr17TemplateCacheDataE=configmg.__ZTIN9configmgr17TemplateCacheDataE
__ZTIN9configmgr18BasicUpdateElementE=configmg.__ZTIN9configmgr18BasicUpdateElementE
__ZTIN9configmgr18CacheLoadingAccessE=configmg.__ZTIN9configmgr18CacheLoadingAccessE
__ZTIN9configmgr18DisposingForwarderE=configmg.__ZTIN9configmgr18DisposingForwarderE
__ZTIN9configmgr18IConfigBroadcasterE=configmg.__ZTIN9configmgr18IConfigBroadcasterE
__ZTIN9configmgr18IConfigTreeManagerE=configmg.__ZTIN9configmgr18IConfigTreeManagerE
__ZTIN9configmgr18OSetElementSetInfoE=configmg.__ZTIN9configmgr18OSetElementSetInfoE
__ZTIN9configmgr19OInnerTreeSetUpdateE=configmg.__ZTIN9configmgr19OInnerTreeSetUpdateE
__ZTIN9configmgr19ORootElementSetInfoE=configmg.__ZTIN9configmgr19ORootElementSetInfoE
__ZTIN9configmgr20OCacheWriteScheduler5TimerE=configmg.__ZTIN9configmgr20OCacheWriteScheduler5TimerE
__ZTIN9configmgr20OChangeActionCounterE=configmg.__ZTIN9configmgr20OChangeActionCounterE
__ZTIN9configmgr20OCreateSubtreeActionE=configmg.__ZTIN9configmgr20OCreateSubtreeActionE
__ZTIN9configmgr20OInnerValueSetUpdateE=configmg.__ZTIN9configmgr20OInnerValueSetUpdateE
__ZTIN9configmgr20OMergeTreeChangeListE=configmg.__ZTIN9configmgr20OMergeTreeChangeListE
__ZTIN9configmgr20OSetElementGroupInfoE=configmg.__ZTIN9configmgr20OSetElementGroupInfoE
__ZTIN9configmgr20ServiceComponentImplE=configmg.__ZTIN9configmgr20ServiceComponentImplE
__ZTIN9configmgr21ORootElementGroupInfoE=configmg.__ZTIN9configmgr21ORootElementGroupInfoE
__ZTIN9configmgr21OSLInputStreamWrapperE=configmg.__ZTIN9configmgr21OSLInputStreamWrapperE
__ZTIN9configmgr21OTreeDisposeScheduler5TimerE=configmg.__ZTIN9configmgr21OTreeDisposeScheduler5TimerE
__ZTIN9configmgr21SubtreeChangeReferrerE=configmg.__ZTIN9configmgr21SubtreeChangeReferrerE
__ZTIN9configmgr22ChangeTreeModificationE=configmg.__ZTIN9configmgr22ChangeTreeModificationE
__ZTIN9configmgr22IConfigDefaultProviderE=configmg.__ZTIN9configmgr22IConfigDefaultProviderE
__ZTIN9configmgr22IConfigTemplateManagerE=configmg.__ZTIN9configmgr22IConfigTemplateManagerE
__ZTIN9configmgr22OConfigurationProviderE=configmg.__ZTIN9configmgr22OConfigurationProviderE
__ZTIN9configmgr22OConfigurationRegistryE=configmg.__ZTIN9configmgr22OConfigurationRegistryE
__ZTIN9configmgr22OSLOutputStreamWrapperE=configmg.__ZTIN9configmgr22OSLOutputStreamWrapperE
__ZTIN9configmgr22OSetElementGroupUpdateE=configmg.__ZTIN9configmgr22OSetElementGroupUpdateE
__ZTIN9configmgr23ConfigChangeBroadcasterE=configmg.__ZTIN9configmgr23ConfigChangeBroadcasterE
__ZTIN9configmgr23IDefaultableTreeManagerE=configmg.__ZTIN9configmgr23IDefaultableTreeManagerE
__ZTIN9configmgr23ORootElementGroupUpdateE=configmg.__ZTIN9configmgr23ORootElementGroupUpdateE
__ZTIN9configmgr24OSetElementTreeSetUpdateE=configmg.__ZTIN9configmgr24OSetElementTreeSetUpdateE
__ZTIN9configmgr25OConfigurationRegistryKeyE=configmg.__ZTIN9configmgr25OConfigurationRegistryKeyE
__ZTIN9configmgr25ORootElementTreeSetUpdateE=configmg.__ZTIN9configmgr25ORootElementTreeSetUpdateE
__ZTIN9configmgr25OSetElementValueSetUpdateE=configmg.__ZTIN9configmgr25OSetElementValueSetUpdateE
__ZTIN9configmgr26OConfigurationProviderImplE=configmg.__ZTIN9configmgr26OConfigurationProviderImplE
__ZTIN9configmgr26OProviderDisposingListenerE=configmg.__ZTIN9configmgr26OProviderDisposingListenerE
__ZTIN9configmgr26ORootElementValueSetUpdateE=configmg.__ZTIN9configmgr26ORootElementValueSetUpdateE
__ZTIN9configmgr26PropertiesFilteredNotifierE=configmg.__ZTIN9configmgr26PropertiesFilteredNotifierE
__ZTIN9configmgr28ForwardTreeDifferenceBuilderE=configmg.__ZTIN9configmgr28ForwardTreeDifferenceBuilderE
__ZTIN9configmgr29BackwardTreeDifferenceBuilderE=configmg.__ZTIN9configmgr29BackwardTreeDifferenceBuilderE
__ZTIN9configmgr29OSLInputBufferedStreamWrapperE=configmg.__ZTIN9configmgr29OSLInputBufferedStreamWrapperE
__ZTIN9configmgr3xml11BasicParserE=configmg.__ZTIN9configmgr3xml11BasicParserE
__ZTIN9configmgr3xml11LayerParserE=configmg.__ZTIN9configmgr3xml11LayerParserE
__ZTIN9configmgr3xml11LayerWriterE=configmg.__ZTIN9configmgr3xml11LayerWriterE
__ZTIN9configmgr3xml12SchemaParserE=configmg.__ZTIN9configmgr3xml12SchemaParserE
__ZTIN9configmgr3xml13ElementParser12BadValueTypeE=configmg.__ZTIN9configmgr3xml13ElementParser12BadValueTypeE
__ZTIN9configmgr3xml13ParserServiceIN3com3sun4star13configuration7backend6XLayerEEE=configmg.__ZTIN9configmgr3xml13ParserServiceIN3com3sun4star13configuration7backend6XLayerEEE
__ZTIN9configmgr3xml13ParserServiceIN3com3sun4star13configuration7backend7XSchemaEEE=configmg.__ZTIN9configmgr3xml13ParserServiceIN3com3sun4star13configuration7backend7XSchemaEEE
__ZTIN9configmgr3xml13WriterServiceIN3com3sun4star13configuration7backend13XLayerHandlerEEE=configmg.__ZTIN9configmgr3xml13WriterServiceIN3com3sun4star13configuration7backend13XLayerHandlerEEE
__ZTIN9configmgr3xml18LayerParserServiceE=configmg.__ZTIN9configmgr3xml18LayerParserServiceE
__ZTIN9configmgr3xml19SchemaParserServiceE=configmg.__ZTIN9configmgr3xml19SchemaParserServiceE
__ZTIN9configmgr4data10SetVisitorE=configmg.__ZTIN9configmgr4data10SetVisitorE
__ZTIN9configmgr4data11NodeVisitorE=configmg.__ZTIN9configmgr4data11NodeVisitorE
__ZTIN9configmgr4data11TreeSegment4ImplE=configmg.__ZTIN9configmgr4data11TreeSegment4ImplE
__ZTIN9configmgr4data15TreeNodeBuilder12LinkSetNodesE=configmg.__ZTIN9configmgr4data15TreeNodeBuilder12LinkSetNodesE
__ZTIN9configmgr4data20BasicDataTreeBuilderE=configmg.__ZTIN9configmgr4data20BasicDataTreeBuilderE
__ZTIN9configmgr4data21ConvertingNodeBuilderE=configmg.__ZTIN9configmgr4data21ConvertingNodeBuilderE
__ZTIN9configmgr4data21DataTreeDefaultMergerE=configmg.__ZTIN9configmgr4data21DataTreeDefaultMergerE
__ZTIN9configmgr4data22CopyingDataTreeBuilder18ElementListBuilderE=configmg.__ZTIN9configmgr4data22CopyingDataTreeBuilder18ElementListBuilderE
__ZTIN9configmgr4data22CopyingDataTreeBuilderE=configmg.__ZTIN9configmgr4data22CopyingDataTreeBuilderE
__ZTIN9configmgr4data24ConvertingSubnodeBuilderE=configmg.__ZTIN9configmgr4data24ConvertingSubnodeBuilderE
__ZTIN9configmgr4data25ConvertingDataTreeBuilder18ElementListBuilderE=configmg.__ZTIN9configmgr4data25ConvertingDataTreeBuilder18ElementListBuilderE
__ZTIN9configmgr4data25ConvertingDataTreeBuilderE=configmg.__ZTIN9configmgr4data25ConvertingDataTreeBuilderE
__ZTIN9configmgr4view11NodeFactoryE=configmg.__ZTIN9configmgr4view11NodeFactoryE
__ZTIN9configmgr4view12ViewStrategyE=configmg.__ZTIN9configmgr4view12ViewStrategyE
__ZTIN9configmgr4view18DirectViewStrategyE=configmg.__ZTIN9configmgr4view18DirectViewStrategyE
__ZTIN9configmgr4view20DeferredViewStrategyE=configmg.__ZTIN9configmgr4view20DeferredViewStrategyE
__ZTIN9configmgr4view20ReadOnlyViewStrategyE=configmg.__ZTIN9configmgr4view20ReadOnlyViewStrategyE
__ZTIN9configmgr4view72_GLOBAL__N__ZNK9configmgr4view12ViewStrategy13checkInstanceERKNS0_4TreeE19GroupMemberDispatchE=configmg.__ZTIN9configmgr4view72_GLOBAL__N__ZNK9configmgr4view12ViewStrategy13checkInstanceERKNS0_4TreeE19GroupMemberDispatchE
__ZTIN9configmgr5INodeE=configmg.__ZTIN9configmgr5INodeE
__ZTIN9configmgr6ChangeE=configmg.__ZTIN9configmgr6ChangeE
__ZTIN9configmgr6memory11HeapManagerE=configmg.__ZTIN9configmgr6memory11HeapManagerE
__ZTIN9configmgr6memory14SimpleHeapLockE=configmg.__ZTIN9configmgr6memory14SimpleHeapLockE
__ZTIN9configmgr6memory21SimpleHeapManagerBaseE=configmg.__ZTIN9configmgr6memory21SimpleHeapManagerBaseE
__ZTIN9configmgr6memory25SimpleCheckingHeapManagerE=configmg.__ZTIN9configmgr6memory25SimpleCheckingHeapManagerE
__ZTIN9configmgr6memory8DataLockE=configmg.__ZTIN9configmgr6memory8DataLockE
__ZTIN9configmgr7AddNodeE=configmg.__ZTIN9configmgr7AddNodeE
__ZTIN9configmgr7SubtreeE=configmg.__ZTIN9configmgr7SubtreeE
__ZTIN9configmgr7backend10EmptyLayerE=configmg.__ZTIN9configmgr7backend10EmptyLayerE
__ZTIN9configmgr7backend10NodeUpdateE=configmg.__ZTIN9configmgr7backend10NodeUpdateE
__ZTIN9configmgr7backend11NamedUpdateE=configmg.__ZTIN9configmgr7backend11NamedUpdateE
__ZTIN9configmgr7backend11NodeReplaceE=configmg.__ZTIN9configmgr7backend11NodeReplaceE
__ZTIN9configmgr7backend11PropertyAddE=configmg.__ZTIN9configmgr7backend11PropertyAddE
__ZTIN9configmgr7backend12ResultHolderINS0_12NodeInstanceEE10RCInstanceE=configmg.__ZTIN9configmgr7backend12ResultHolderINS0_12NodeInstanceEE10RCInstanceE
__ZTIN9configmgr7backend12ResultHolderINS0_16TemplateInstanceEE10RCInstanceE=configmg.__ZTIN9configmgr7backend12ResultHolderINS0_16TemplateInstanceEE10RCInstanceE
__ZTIN9configmgr7backend12ResultHolderINS0_17ComponentInstanceEE10RCInstanceE=configmg.__ZTIN9configmgr7backend12ResultHolderINS0_17ComponentInstanceEE10RCInstanceE
__ZTIN9configmgr7backend13BackendAccessE=configmg.__ZTIN9configmgr7backend13BackendAccessE
__ZTIN9configmgr7backend13ElementUpdateE=configmg.__ZTIN9configmgr7backend13ElementUpdateE
__ZTIN9configmgr7backend13ImportServiceE=configmg.__ZTIN9configmgr7backend13ImportServiceE
__ZTIN9configmgr7backend13PropertyResetE=configmg.__ZTIN9configmgr7backend13PropertyResetE
__ZTIN9configmgr7backend13SchemaBuilderE=configmg.__ZTIN9configmgr7backend13SchemaBuilderE
__ZTIN9configmgr7backend13UpdateServiceE=configmg.__ZTIN9configmgr7backend13UpdateServiceE
__ZTIN9configmgr7backend14PropertyUpdateE=configmg.__ZTIN9configmgr7backend14PropertyUpdateE
__ZTIN9configmgr7backend15CacheControllerE=configmg.__ZTIN9configmgr7backend15CacheControllerE
__ZTIN9configmgr7backend16NodeModificationE=configmg.__ZTIN9configmgr7backend16NodeModificationE
__ZTIN9configmgr7backend16UpdateDispatcherE=configmg.__ZTIN9configmgr7backend16UpdateDispatcherE
__ZTIN9configmgr7backend17BasicUpdateMergerE=configmg.__ZTIN9configmgr7backend17BasicUpdateMergerE
__ZTIN9configmgr7backend17BinaryReader_ImplE=configmg.__ZTIN9configmgr7backend17BinaryReader_ImplE
__ZTIN9configmgr7backend17CopyImportServiceE=configmg.__ZTIN9configmgr7backend17CopyImportServiceE
__ZTIN9configmgr7backend17INodeDataListenerE=configmg.__ZTIN9configmgr7backend17INodeDataListenerE
__ZTIN9configmgr7backend17INodeDataProviderE=configmg.__ZTIN9configmgr7backend17INodeDataProviderE
__ZTIN9configmgr7backend17LayerMergeHandlerE=configmg.__ZTIN9configmgr7backend17LayerMergeHandlerE
__ZTIN9configmgr7backend17LayerUpdateMergerE=configmg.__ZTIN9configmgr7backend17LayerUpdateMergerE
__ZTIN9configmgr7backend17RequireEmptyLayerE=configmg.__ZTIN9configmgr7backend17RequireEmptyLayerE
__ZTIN9configmgr7backend18BasicImportHandlerE=configmg.__ZTIN9configmgr7backend18BasicImportHandlerE
__ZTIN9configmgr7backend18BinaryWriteHandlerE=configmg.__ZTIN9configmgr7backend18BinaryWriteHandlerE
__ZTIN9configmgr7backend18ImportMergeHandlerE=configmg.__ZTIN9configmgr7backend18ImportMergeHandlerE
__ZTIN9configmgr7backend18LayerUpdateHandlerE=configmg.__ZTIN9configmgr7backend18LayerUpdateHandlerE
__ZTIN9configmgr7backend18MergeImportServiceE=configmg.__ZTIN9configmgr7backend18MergeImportServiceE
__ZTIN9configmgr7backend19ICachedDataListenerE=configmg.__ZTIN9configmgr7backend19ICachedDataListenerE
__ZTIN9configmgr7backend19ICachedDataNotifierE=configmg.__ZTIN9configmgr7backend19ICachedDataNotifierE
__ZTIN9configmgr7backend19ICachedDataProviderE=configmg.__ZTIN9configmgr7backend19ICachedDataProviderE
__ZTIN9configmgr7backend19IDirectDataProviderE=configmg.__ZTIN9configmgr7backend19IDirectDataProviderE
__ZTIN9configmgr7backend19IMergedDataProviderE=configmg.__ZTIN9configmgr7backend19IMergedDataProviderE
__ZTIN9configmgr7backend19INodeUpdateProviderE=configmg.__ZTIN9configmgr7backend19INodeUpdateProviderE
__ZTIN9configmgr7backend19LayerDefaultRemoverE=configmg.__ZTIN9configmgr7backend19LayerDefaultRemoverE
__ZTIN9configmgr7backend19MultiStratumBackendE=configmg.__ZTIN9configmgr7backend19MultiStratumBackendE
__ZTIN9configmgr7backend20IDefaultDataProviderE=configmg.__ZTIN9configmgr7backend20IDefaultDataProviderE
__ZTIN9configmgr7backend20SingleBackendAdapterE=configmg.__ZTIN9configmgr7backend20SingleBackendAdapterE
__ZTIN9configmgr7backend21BackendChangeNotifierE=configmg.__ZTIN9configmgr7backend21BackendChangeNotifierE
__ZTIN9configmgr7backend21BackendStrataListenerE=configmg.__ZTIN9configmgr7backend21BackendStrataListenerE
__ZTIN9configmgr7backend21IDataProviderMetaDataE=configmg.__ZTIN9configmgr7backend21IDataProviderMetaDataE
__ZTIN9configmgr7backend21ITemplateDataProviderE=configmg.__ZTIN9configmgr7backend21ITemplateDataProviderE
__ZTIN9configmgr7backend21OInvalidateTreeThreadE=configmg.__ZTIN9configmgr7backend21OInvalidateTreeThreadE
__ZTIN9configmgr7backend22CacheChangeMulticasterE=configmg.__ZTIN9configmgr7backend22CacheChangeMulticasterE
__ZTIN9configmgr7backend22IComponentDataProviderE=configmg.__ZTIN9configmgr7backend22IComponentDataProviderE
__ZTIN9configmgr7backend8NodeDropE=configmg.__ZTIN9configmgr7backend8NodeDropE
__ZTIN9configmgr7localbe16LocalDataStratumE=configmg.__ZTIN9configmgr7localbe16LocalDataStratumE
__ZTIN9configmgr7localbe16LocalStratumBaseE=configmg.__ZTIN9configmgr7localbe16LocalStratumBaseE
__ZTIN9configmgr7localbe17LocalMultiStratumE=configmg.__ZTIN9configmgr7localbe17LocalMultiStratumE
__ZTIN9configmgr7localbe17LocalOutputStreamE=configmg.__ZTIN9configmgr7localbe17LocalOutputStreamE
__ZTIN9configmgr7localbe18FlatLocalFileLayerE=configmg.__ZTIN9configmgr7localbe18FlatLocalFileLayerE
__ZTIN9configmgr7localbe18LocalSingleBackendE=configmg.__ZTIN9configmgr7localbe18LocalSingleBackendE
__ZTIN9configmgr7localbe18LocalSingleStratumE=configmg.__ZTIN9configmgr7localbe18LocalSingleStratumE
__ZTIN9configmgr7localbe19BasicLocalFileLayerE=configmg.__ZTIN9configmgr7localbe19BasicLocalFileLayerE
__ZTIN9configmgr7localbe19LayerPropertyHelperE=configmg.__ZTIN9configmgr7localbe19LayerPropertyHelperE
__ZTIN9configmgr7localbe19LocalSchemaSupplierE=configmg.__ZTIN9configmgr7localbe19LocalSchemaSupplierE
__ZTIN9configmgr7localbe20LocalReadonlyStratumE=configmg.__ZTIN9configmgr7localbe20LocalReadonlyStratumE
__ZTIN9configmgr7localbe20LocalResourceStratumE=configmg.__ZTIN9configmgr7localbe20LocalResourceStratumE
__ZTIN9configmgr7localbe20SimpleLocalFileLayerE=configmg.__ZTIN9configmgr7localbe20SimpleLocalFileLayerE
__ZTIN9configmgr7localbe22LocalDataImportServiceE=configmg.__ZTIN9configmgr7localbe22LocalDataImportServiceE
__ZTIN9configmgr7localbe22LocalSingleStratumBaseE=configmg.__ZTIN9configmgr7localbe22LocalSingleStratumBaseE
__ZTIN9configmgr7localbe23CompositeLocalFileLayerE=configmg.__ZTIN9configmgr7localbe23CompositeLocalFileLayerE
__ZTIN9configmgr7localbe23LocalStratumMutexHolderE=configmg.__ZTIN9configmgr7localbe23LocalStratumMutexHolderE
__ZTIN9configmgr7localbe27FullCompositeLocalFileLayerE=configmg.__ZTIN9configmgr7localbe27FullCompositeLocalFileLayerE
__ZTIN9configmgr7localbe28BasicCompositeLocalFileLayerE=configmg.__ZTIN9configmgr7localbe28BasicCompositeLocalFileLayerE
__ZTIN9configmgr7localbe28LocalHierarchyBrowserServiceE=configmg.__ZTIN9configmgr7localbe28LocalHierarchyBrowserServiceE
__ZTIN9configmgr8BasicSetE=configmg.__ZTIN9configmgr8BasicSetE
__ZTIN9configmgr8ISubtreeE=configmg.__ZTIN9configmgr8ISubtreeE
__ZTIN9configmgr8OOptionsE=configmg.__ZTIN9configmgr8OOptionsE
__ZTIN9configmgr9CacheDataE=configmg.__ZTIN9configmgr9CacheDataE
__ZTIN9configmgr9CacheLineE=configmg.__ZTIN9configmgr9CacheLineE
__ZTIN9configmgr9OProviderE=configmg.__ZTIN9configmgr9OProviderE
__ZTIN9configmgr9ValueNodeE=configmg.__ZTIN9configmgr9ValueNodeE
__ZTIN9configmgr9apihelper15BroadcasterBaseE=configmg.__ZTIN9configmgr9apihelper15BroadcasterBaseE
__ZTIN9configmgr9apihelper17PropertySetHelperE=configmg.__ZTIN9configmgr9apihelper17PropertySetHelperE
__ZTIN9configmgr9apihelper18InteractionRequestE=configmg.__ZTIN9configmgr9apihelper18InteractionRequestE
__ZTIN9configmgr9apihelper23InteractionContinuationIN3com3sun4star4task17XInteractionAbortEEE=configmg.__ZTIN9configmgr9apihelper23InteractionContinuationIN3com3sun4star4task17XInteractionAbortEEE
__ZTIN9configmgr9apihelper23InteractionContinuationIN3com3sun4star4task17XInteractionRetryEEE=configmg.__ZTIN9configmgr9apihelper23InteractionContinuationIN3com3sun4star4task17XInteractionRetryEEE
__ZTIN9configmgr9apihelper23InteractionContinuationIN3com3sun4star4task19XInteractionApproveEEE=configmg.__ZTIN9configmgr9apihelper23InteractionContinuationIN3com3sun4star4task19XInteractionApproveEEE
__ZTIN9configmgr9apihelper23InteractionContinuationIN3com3sun4star4task22XInteractionDisapproveEEE=configmg.__ZTIN9configmgr9apihelper23InteractionContinuationIN3com3sun4star4task22XInteractionDisapproveEEE
__ZTIN9configmgr9apihelper24SimpleInteractionRequestE=configmg.__ZTIN9configmgr9apihelper24SimpleInteractionRequestE
__ZTIN9configmgr9apihelper31ConfigurationInteractionHandler7ContextE=configmg.__ZTIN9configmgr9apihelper31ConfigurationInteractionHandler7ContextE
__ZTIN9configmgr9configapi10NodeAccessE=configmg.__ZTIN9configmgr9configapi10NodeAccessE
__ZTIN9configmgr9configapi10SetElementE=configmg.__ZTIN9configmgr9configapi10SetElementE
__ZTIN9configmgr9configapi11ApiTreeImpl16ComponentAdapterE=configmg.__ZTIN9configmgr9configapi11ApiTreeImpl16ComponentAdapterE
__ZTIN9configmgr9configapi11Broadcaster4ImplE=configmg.__ZTIN9configmgr9configapi11Broadcaster4ImplE
__ZTIN9configmgr9configapi11NodeElementE=configmg.__ZTIN9configmgr9configapi11NodeElementE
__ZTIN9configmgr9configapi11OSetElementINS0_15NodeGroupAccessEEE=configmg.__ZTIN9configmgr9configapi11OSetElementINS0_15NodeGroupAccessEEE
__ZTIN9configmgr9configapi11OSetElementINS0_17NodeSetInfoAccessEEE=configmg.__ZTIN9configmgr9configapi11OSetElementINS0_17NodeSetInfoAccessEEE
__ZTIN9configmgr9configapi11OSetElementINS0_17NodeTreeSetAccessEEE=configmg.__ZTIN9configmgr9configapi11OSetElementINS0_17NodeTreeSetAccessEEE
__ZTIN9configmgr9configapi11OSetElementINS0_18NodeValueSetAccessEEE=configmg.__ZTIN9configmgr9configapi11OSetElementINS0_18NodeValueSetAccessEEE
__ZTIN9configmgr9configapi11OSetElementINS0_19NodeGroupInfoAccessEEE=configmg.__ZTIN9configmgr9configapi11OSetElementINS0_19NodeGroupInfoAccessEEE
__ZTIN9configmgr9configapi11RootElementE=configmg.__ZTIN9configmgr9configapi11RootElementE
__ZTIN9configmgr9configapi11TreeElementE=configmg.__ZTIN9configmgr9configapi11TreeElementE
__ZTIN9configmgr9configapi12InnerElementE=configmg.__ZTIN9configmgr9configapi12InnerElementE
__ZTIN9configmgr9configapi12NotifierImplE=configmg.__ZTIN9configmgr9configapi12NotifierImplE
__ZTIN9configmgr9configapi13NodeSetAccessE=configmg.__ZTIN9configmgr9configapi13NodeSetAccessE
__ZTIN9configmgr9configapi13OInnerElementINS0_15NodeGroupAccessEEE=configmg.__ZTIN9configmgr9configapi13OInnerElementINS0_15NodeGroupAccessEEE
__ZTIN9configmgr9configapi13OInnerElementINS0_17NodeSetInfoAccessEEE=configmg.__ZTIN9configmgr9configapi13OInnerElementINS0_17NodeSetInfoAccessEEE
__ZTIN9configmgr9configapi13OInnerElementINS0_17NodeTreeSetAccessEEE=configmg.__ZTIN9configmgr9configapi13OInnerElementINS0_17NodeTreeSetAccessEEE
__ZTIN9configmgr9configapi13OInnerElementINS0_18NodeValueSetAccessEEE=configmg.__ZTIN9configmgr9configapi13OInnerElementINS0_18NodeValueSetAccessEEE
__ZTIN9configmgr9configapi13OInnerElementINS0_19NodeGroupInfoAccessEEE=configmg.__ZTIN9configmgr9configapi13OInnerElementINS0_19NodeGroupInfoAccessEEE
__ZTIN9configmgr9configapi14ObjectRegistryE=configmg.__ZTIN9configmgr9configapi14ObjectRegistryE
__ZTIN9configmgr9configapi15ApiRootTreeImpl12NodeListenerE=configmg.__ZTIN9configmgr9configapi15ApiRootTreeImpl12NodeListenerE
__ZTIN9configmgr9configapi15NodeGroupAccessE=configmg.__ZTIN9configmgr9configapi15NodeGroupAccessE
__ZTIN9configmgr9configapi16CollectNodeNamesE=configmg.__ZTIN9configmgr9configapi16CollectNodeNamesE
__ZTIN9configmgr9configapi16OReadRootElementINS0_17NodeSetInfoAccessEEE=configmg.__ZTIN9configmgr9configapi16OReadRootElementINS0_17NodeSetInfoAccessEEE
__ZTIN9configmgr9configapi16OReadRootElementINS0_19NodeGroupInfoAccessEEE=configmg.__ZTIN9configmgr9configapi16OReadRootElementINS0_19NodeGroupInfoAccessEEE
__ZTIN9configmgr9configapi17CollectPropertiesE=configmg.__ZTIN9configmgr9configapi17CollectPropertiesE
__ZTIN9configmgr9configapi17NodeSetInfoAccessE=configmg.__ZTIN9configmgr9configapi17NodeSetInfoAccessE
__ZTIN9configmgr9configapi17NodeTreeSetAccessE=configmg.__ZTIN9configmgr9configapi17NodeTreeSetAccessE
__ZTIN9configmgr9configapi17UpdateRootElementE=configmg.__ZTIN9configmgr9configapi17UpdateRootElementE
__ZTIN9configmgr9configapi18NodeValueSetAccessE=configmg.__ZTIN9configmgr9configapi18NodeValueSetAccessE
__ZTIN9configmgr9configapi18OUpdateRootElementINS0_15NodeGroupAccessEEE=configmg.__ZTIN9configmgr9configapi18OUpdateRootElementINS0_15NodeGroupAccessEEE
__ZTIN9configmgr9configapi18OUpdateRootElementINS0_17NodeTreeSetAccessEEE=configmg.__ZTIN9configmgr9configapi18OUpdateRootElementINS0_17NodeTreeSetAccessEEE
__ZTIN9configmgr9configapi18OUpdateRootElementINS0_18NodeValueSetAccessEEE=configmg.__ZTIN9configmgr9configapi18OUpdateRootElementINS0_18NodeValueSetAccessEEE
__ZTIN9configmgr9configapi19CollectPropertyInfoE=configmg.__ZTIN9configmgr9configapi19CollectPropertyInfoE
__ZTIN9configmgr9configapi19NodeGroupInfoAccessE=configmg.__ZTIN9configmgr9configapi19NodeGroupInfoAccessE
__ZTIN9configmgr9configapi19NodePropertySetInfoE=configmg.__ZTIN9configmgr9configapi19NodePropertySetInfoE
__ZTIN9configmgr9configapi19UpdateObjectFactoryE=configmg.__ZTIN9configmgr9configapi19UpdateObjectFactoryE
__ZTIN9configmgr9configapi21ReadOnlyObjectFactoryE=configmg.__ZTIN9configmgr9configapi21ReadOnlyObjectFactoryE
__ZTIN9configmgr9configapi7FactoryE=configmg.__ZTIN9configmgr9configapi7FactoryE
__ZTIN9configmgr9configapi8internal15SearchExactNameE=configmg.__ZTIN9configmgr9configapi8internal15SearchExactNameE
__ZTIN9salhelper21SimpleReferenceObjectE=configmg.__ZTIN9salhelper21SimpleReferenceObjectE

EXPORTS
__ZTIN3com3sun4star3ucb31InteractiveAugmentedIOExceptionE
__ZTIN3com3sun4star3ucb22InteractiveIOExceptionE
__ZTIN3com3sun4star4task28ClassifiedInteractionRequestE
__ZTIN3com3sun4star3ucb18NameClashExceptionE
__ZTIN3com3sun4star3ucb27UnsupportedCommandExceptionE
IMPORTS
__ZTIN3com3sun4star3ucb31InteractiveAugmentedIOExceptionE=ucpfile1.__ZTIN3com3sun4star3ucb31InteractiveAugmentedIOExceptionE
__ZTIN3com3sun4star3ucb22InteractiveIOExceptionE=ucpfile1.__ZTIN3com3sun4star3ucb22InteractiveIOExceptionE
__ZTIN3com3sun4star4task28ClassifiedInteractionRequestE=ucpfile1.__ZTIN3com3sun4star4task28ClassifiedInteractionRequestE
__ZTIN3com3sun4star3ucb18NameClashExceptionE=ucpfile1.__ZTIN3com3sun4star3ucb18NameClashExceptionE
__ZTIN3com3sun4star3ucb27UnsupportedCommandExceptionE=ucpfile1.__ZTIN3com3sun4star3ucb27UnsupportedCommandExceptionE

EXPORTS
__ZTIN3com3sun4star3ucb34InteractiveBadTransferURLExceptionE
IMPORTS
__ZTIN3com3sun4star3ucb34InteractiveBadTransferURLExceptionE=ucb1.__ZTIN3com3sun4star3ucb34InteractiveBadTransferURLExceptionE
