Certificate:
    Data:
        Version: 3 (0x2)
        Serial Number: 4097 (0x1001)
        Signature Algorithm: sha1WithRSAEncryption
        Issuer: C=DE, ST=Hamburg, O=OpenOffice.org, OU=Development, CN=Root 4
        Validity
            Not Before: Nov 20 09:22:27 2009 GMT
            Not After : Nov 14 09:22:27 2034 GMT
        Subject: C=DE, ST=Hamburg, O=OpenOffice.org, OU=Development, CN=Sub CA 2 Root 4
        Subject Public Key Info:
            Public Key Algorithm: rsaEncryption
            RSA Public Key: (1024 bit)
                Modulus (1024 bit):
                    00:e5:8d:27:4e:09:53:08:61:c6:23:25:9e:dd:9c:
                    07:bf:81:38:5c:5c:10:8f:e4:12:2f:4e:2e:b1:a1:
                    cf:21:46:53:bf:e8:5e:de:17:3a:9d:f7:e8:ef:3e:
                    9c:b4:29:37:4c:31:35:15:dc:98:e0:93:9c:ce:6a:
                    d6:e1:35:19:6b:d4:1d:3b:81:86:b1:e7:ff:1f:b8:
                    34:a9:f9:de:4d:b8:62:ac:3b:d4:58:8e:5c:76:b5:
                    07:7f:32:8a:3a:90:73:71:d5:da:f1:79:39:14:ed:
                    1b:f1:8a:3e:be:48:bc:07:ec:f9:7c:03:14:fc:e7:
                    55:a3:65:81:c7:6c:70:0b:ff
                Exponent: 65537 (0x10001)
        X509v3 extensions:
            X509v3 Subject Key Identifier: 
                69:DE:B6:99:C4:95:F7:5A:FA:41:6B:4C:F6:C3:6D:89:AA:37:31:9D
            X509v3 Authority Key Identifier: 
                keyid:BA:8D:A1:97:DC:C4:39:1F:90:B5:51:6B:10:19:F2:46:0D:A9:65:8E
                DirName:/C=DE/ST=Hamburg/O=OpenOffice.org/OU=Development/CN=Root 4
                serial:A2:93:46:74:3B:A6:E3:AD

            X509v3 Basic Constraints: critical
                CA:TRUE
    Signature Algorithm: sha1WithRSAEncryption
        bc:cf:43:eb:72:b1:71:a7:94:8e:cd:5b:fc:d8:21:31:83:db:
        a9:de:c7:5b:14:e5:7b:90:43:e6:05:df:db:6e:95:5f:24:ac:
        0c:a1:8a:ac:c6:cf:f2:03:cd:a0:30:ae:d3:a9:41:07:c9:b1:
        be:4b:e0:fc:a2:76:09:07:75:6a:fa:e4:2f:a3:3a:cd:81:68:
        ab:f6:06:c4:32:08:25:6e:e8:e7:36:9c:1a:f7:42:73:f8:b0:
        d8:42:3e:85:c2:11:23:10:d6:6a:e4:8f:53:cb:8b:8b:1b:5a:
        4d:6d:9d:34:45:26:52:d2:ee:6d:8f:23:ff:00:92:f5:99:62:
        4c:41
-----BEGIN CERTIFICATE-----
MIIDBjCCAm+gAwIBAgICEAEwDQYJKoZIhvcNAQEFBQAwXzELMAkGA1UEBhMCREUx
EDAOBgNVBAgTB0hhbWJ1cmcxFzAVBgNVBAoTDk9wZW5PZmZpY2Uub3JnMRQwEgYD
VQQLEwtEZXZlbG9wbWVudDEPMA0GA1UEAxMGUm9vdCA0MB4XDTA5MTEyMDA5MjIy
N1oXDTM0MTExNDA5MjIyN1owaDELMAkGA1UEBhMCREUxEDAOBgNVBAgTB0hhbWJ1
cmcxFzAVBgNVBAoTDk9wZW5PZmZpY2Uub3JnMRQwEgYDVQQLEwtEZXZlbG9wbWVu
dDEYMBYGA1UEAxMPU3ViIENBIDIgUm9vdCA0MIGfMA0GCSqGSIb3DQEBAQUAA4GN
ADCBiQKBgQDljSdOCVMIYcYjJZ7dnAe/gThcXBCP5BIvTi6xoc8hRlO/6F7eFzqd
9+jvPpy0KTdMMTUV3Jjgk5zOatbhNRlr1B07gYax5/8fuDSp+d5NuGKsO9RYjlx2
tQd/Moo6kHNx1drxeTkU7Rvxij6+SLwH7Pl8AxT851WjZYHHbHAL/wIDAQABo4HH
MIHEMB0GA1UdDgQWBBRp3raZxJX3WvpBa0z2w22JqjcxnTCBkQYDVR0jBIGJMIGG
gBS6jaGX3MQ5H5C1UWsQGfJGDalljqFjpGEwXzELMAkGA1UEBhMCREUxEDAOBgNV
BAgTB0hhbWJ1cmcxFzAVBgNVBAoTDk9wZW5PZmZpY2Uub3JnMRQwEgYDVQQLEwtE
ZXZlbG9wbWVudDEPMA0GA1UEAxMGUm9vdCA0ggkAopNGdDum460wDwYDVR0TAQH/
BAUwAwEB/zANBgkqhkiG9w0BAQUFAAOBgQC8z0PrcrFxp5SOzVv82CExg9up3sdb
FOV7kEPmBd/bbpVfJKwMoYqsxs/yA82gMK7TqUEHybG+S+D8onYJB3Vq+uQvozrN
gWir9gbEMgglbujnNpwa90Jz+LDYQj6FwhEjENZq5I9Ty4uLG1pNbZ00RSZS0u5t
jyP/AJL1mWJMQQ==
-----END CERTIFICATE-----
