Certificate:
    Data:
        Version: 3 (0x2)
        Serial Number: 4096 (0x1000)
        Signature Algorithm: sha1WithRSAEncryption
        Issuer: C=DE, ST=Hamburg, O=OpenOffice.org, OU=Development, CN=Root 10
        Validity
            Not Before: Nov 23 15:14:48 2009 GMT
            Not After : Nov 17 15:14:48 2034 GMT
        Subject: C=DE, ST=Hamburg, O=OpenOffice.org, OU=Development, CN=Sub CA 1 Root 10
        Subject Public Key Info:
            Public Key Algorithm: rsaEncryption
            RSA Public Key: (1024 bit)
                Modulus (1024 bit):
                    00:e4:d5:66:14:88:9f:79:41:50:b0:d1:a0:1b:98:
                    bf:b0:21:34:30:36:70:58:6f:8b:58:f1:b9:58:3a:
                    ce:29:6b:65:b6:11:f7:0d:c8:a6:c3:be:db:0f:2a:
                    4e:c7:42:df:c9:0e:13:c0:00:0f:af:b5:71:c4:bc:
                    dd:82:fc:4a:27:c0:ee:af:ba:e1:7b:67:de:6b:bb:
                    ac:4c:fe:88:01:1a:73:4e:f5:32:15:3a:d0:cb:6b:
                    97:84:1b:6c:d0:d6:91:a8:a4:5a:87:2a:69:61:36:
                    1d:42:cc:16:d0:03:9c:c6:90:5c:61:20:8b:b1:be:
                    b6:54:24:5b:6f:1f:a9:5a:6f
                Exponent: 65537 (0x10001)
        X509v3 extensions:
            X509v3 Subject Key Identifier: 
                11:63:A1:BE:8B:E3:56:07:E6:A3:9F:23:39:72:7D:E3:22:B6:53:39
            X509v3 Authority Key Identifier: 
                keyid:C8:A7:A3:80:20:74:6C:6F:EC:11:7A:F6:BE:26:10:37:31:87:B0:7A
                DirName:/C=DE/ST=Hamburg/O=OpenOffice.org/OU=Development/CN=Root 10
                serial:BF:C8:0F:BB:D9:A0:3A:6B

            X509v3 Basic Constraints: critical
                CA:TRUE
    Signature Algorithm: sha1WithRSAEncryption
        6b:0f:75:6d:56:b0:4e:45:19:65:ad:50:ef:4e:87:6c:95:5d:
        05:39:5a:43:5c:b4:51:25:9a:ec:f4:93:d1:f0:f6:91:dd:a3:
        77:95:0c:74:3c:a9:7c:c2:f6:62:ce:bf:58:5f:66:1f:d0:55:
        ca:d8:2d:c4:1e:29:3a:ad:55:2c:9d:2c:8f:8e:9e:ce:ac:17:
        7e:1b:d1:16:d9:12:76:5c:2d:3f:9d:70:66:aa:39:34:f0:ec:
        31:4b:4b:5a:14:0c:c5:5b:3c:c8:47:02:90:cb:77:d7:4f:88:
        10:a7:80:3d:ca:19:5c:b5:04:c9:f0:e1:1b:5a:5f:fb:61:b2:
        14:b5
-----BEGIN CERTIFICATE-----
MIIDCTCCAnKgAwIBAgICEAAwDQYJKoZIhvcNAQEFBQAwYDELMAkGA1UEBhMCREUx
EDAOBgNVBAgTB0hhbWJ1cmcxFzAVBgNVBAoTDk9wZW5PZmZpY2Uub3JnMRQwEgYD
VQQLEwtEZXZlbG9wbWVudDEQMA4GA1UEAxMHUm9vdCAxMDAeFw0wOTExMjMxNTE0
NDhaFw0zNDExMTcxNTE0NDhaMGkxCzAJBgNVBAYTAkRFMRAwDgYDVQQIEwdIYW1i
dXJnMRcwFQYDVQQKEw5PcGVuT2ZmaWNlLm9yZzEUMBIGA1UECxMLRGV2ZWxvcG1l
bnQxGTAXBgNVBAMTEFN1YiBDQSAxIFJvb3QgMTAwgZ8wDQYJKoZIhvcNAQEBBQAD
gY0AMIGJAoGBAOTVZhSIn3lBULDRoBuYv7AhNDA2cFhvi1jxuVg6zilrZbYR9w3I
psO+2w8qTsdC38kOE8AAD6+1ccS83YL8SifA7q+64Xtn3mu7rEz+iAEac071MhU6
0Mtrl4QbbNDWkaikWocqaWE2HULMFtADnMaQXGEgi7G+tlQkW28fqVpvAgMBAAGj
gcgwgcUwHQYDVR0OBBYEFBFjob6L41YH5qOfIzlyfeMitlM5MIGSBgNVHSMEgYow
gYeAFMino4AgdGxv7BF69r4mEDcxh7B6oWSkYjBgMQswCQYDVQQGEwJERTEQMA4G
A1UECBMHSGFtYnVyZzEXMBUGA1UEChMOT3Blbk9mZmljZS5vcmcxFDASBgNVBAsT
C0RldmVsb3BtZW50MRAwDgYDVQQDEwdSb290IDEwggkAv8gPu9mgOmswDwYDVR0T
AQH/BAUwAwEB/zANBgkqhkiG9w0BAQUFAAOBgQBrD3VtVrBORRllrVDvTodslV0F
OVpDXLRRJZrs9JPR8PaR3aN3lQx0PKl8wvZizr9YX2Yf0FXK2C3EHik6rVUsnSyP
jp7OrBd+G9EW2RJ2XC0/nXBmqjk08OwxS0taFAzFWzzIRwKQy3fXT4gQp4A9yhlc
tQTJ8OEbWl/7YbIUtQ==
-----END CERTIFICATE-----
