Certificate:
    Data:
        Version: 3 (0x2)
        Serial Number: 4096 (0x1000)
        Signature Algorithm: sha1WithRSAEncryption
        Issuer: C=DE, ST=Hamburg, O=OpenOffice.org, OU=Development, CN=Root 9
        Validity
            Not Before: Nov 23 13:59:19 2009 GMT
            Not After : Nov 17 13:59:19 2034 GMT
        Subject: C=DE, ST=Hamburg, O=OpenOffice.org, OU=Development, CN=Sub CA 1 Root 9
        Subject Public Key Info:
            Public Key Algorithm: rsaEncryption
            RSA Public Key: (1024 bit)
                Modulus (1024 bit):
                    00:a9:6d:7f:6a:08:fb:e2:3a:5e:83:3f:ff:58:ba:
                    92:a1:79:9d:ce:d2:0c:16:15:f2:7e:b3:e4:45:9c:
                    02:32:65:9b:02:90:78:05:95:e4:04:1d:4a:05:bb:
                    ea:f6:ac:ab:15:74:c2:bc:ee:2a:c1:80:55:3e:93:
                    1f:5c:94:eb:cf:cf:8f:15:eb:b8:22:fe:69:61:51:
                    a9:08:b8:80:bd:48:99:da:85:10:1c:75:97:fd:d3:
                    c3:c4:0b:dd:eb:01:12:5d:ee:62:62:c3:0c:18:ea:
                    ed:76:ff:9b:1c:1f:c7:81:f9:9a:cd:e5:25:89:b2:
                    13:57:56:f3:27:53:72:76:69
                Exponent: 65537 (0x10001)
        X509v3 extensions:
            X509v3 Subject Key Identifier: 
                7B:D3:57:BF:6A:CB:6C:10:81:91:DA:95:DC:88:4F:A5:D0:DB:D1:46
            X509v3 Authority Key Identifier: 
                keyid:CD:33:5E:AB:73:23:51:80:B8:03:AD:12:01:0B:C5:5E:8E:55:CA:64
                DirName:/C=DE/ST=Hamburg/O=OpenOffice.org/OU=Development/CN=Root 9
                serial:A4:DB:16:0D:4B:8C:D4:A6

            X509v3 Basic Constraints: critical
                CA:TRUE
    Signature Algorithm: sha1WithRSAEncryption
        17:67:b0:21:da:0d:a1:fe:09:62:d0:cf:1d:c0:c8:bd:d4:22:
        dd:75:ec:04:e2:23:ae:ea:8c:15:fa:73:2e:83:f4:16:eb:c1:
        e1:87:36:bd:58:d0:64:e0:6e:2c:bc:27:cb:dc:4b:58:01:80:
        48:27:53:bb:75:85:a7:19:b8:e2:c0:1f:9f:a2:18:27:82:3f:
        25:bf:17:d1:34:32:de:c4:81:9d:8a:39:6f:6b:1f:b6:12:61:
        74:78:96:6d:6e:52:23:4a:67:30:78:03:91:b7:89:bf:3c:4a:
        36:e3:95:21:38:35:af:05:55:81:05:25:91:78:ca:2f:5d:79:
        d2:05
-----BEGIN CERTIFICATE-----
MIIDBjCCAm+gAwIBAgICEAAwDQYJKoZIhvcNAQEFBQAwXzELMAkGA1UEBhMCREUx
EDAOBgNVBAgTB0hhbWJ1cmcxFzAVBgNVBAoTDk9wZW5PZmZpY2Uub3JnMRQwEgYD
VQQLEwtEZXZlbG9wbWVudDEPMA0GA1UEAxMGUm9vdCA5MB4XDTA5MTEyMzEzNTkx
OVoXDTM0MTExNzEzNTkxOVowaDELMAkGA1UEBhMCREUxEDAOBgNVBAgTB0hhbWJ1
cmcxFzAVBgNVBAoTDk9wZW5PZmZpY2Uub3JnMRQwEgYDVQQLEwtEZXZlbG9wbWVu
dDEYMBYGA1UEAxMPU3ViIENBIDEgUm9vdCA5MIGfMA0GCSqGSIb3DQEBAQUAA4GN
ADCBiQKBgQCpbX9qCPviOl6DP/9YupKheZ3O0gwWFfJ+s+RFnAIyZZsCkHgFleQE
HUoFu+r2rKsVdMK87irBgFU+kx9clOvPz48V67gi/mlhUakIuIC9SJnahRAcdZf9
08PEC93rARJd7mJiwwwY6u12/5scH8eB+ZrN5SWJshNXVvMnU3J2aQIDAQABo4HH
MIHEMB0GA1UdDgQWBBR701e/astsEIGR2pXciE+l0NvRRjCBkQYDVR0jBIGJMIGG
gBTNM16rcyNRgLgDrRIBC8VejlXKZKFjpGEwXzELMAkGA1UEBhMCREUxEDAOBgNV
BAgTB0hhbWJ1cmcxFzAVBgNVBAoTDk9wZW5PZmZpY2Uub3JnMRQwEgYDVQQLEwtE
ZXZlbG9wbWVudDEPMA0GA1UEAxMGUm9vdCA5ggkApNsWDUuM1KYwDwYDVR0TAQH/
BAUwAwEB/zANBgkqhkiG9w0BAQUFAAOBgQAXZ7Ah2g2h/gli0M8dwMi91CLddewE
4iOu6owV+nMug/QW68Hhhza9WNBk4G4svCfL3EtYAYBIJ1O7dYWnGbjiwB+fohgn
gj8lvxfRNDLexIGdijlvax+2EmF0eJZtblIjSmcweAORt4m/PEo245UhODWvBVWB
BSWReMovXXnSBQ==
-----END CERTIFICATE-----
