Certificate:
    Data:
        Version: 3 (0x2)
        Serial Number: 4096 (0x1000)
        Signature Algorithm: sha1WithRSAEncryption
        Issuer: C=DE, ST=Hamburg, O=OpenOffice.org, OU=Development, CN=Sub CA 1 Root 3
        Validity
            Not Before: Nov 20 07:52:25 2009 GMT
            Not After : Nov 14 07:52:25 2034 GMT
        Subject: C=DE, ST=Hamburg, O=OpenOffice.org, OU=Development, CN=User 1 Sub CA 1 Root 3
        Subject Public Key Info:
            Public Key Algorithm: rsaEncryption
            RSA Public Key: (1024 bit)
                Modulus (1024 bit):
                    00:bc:82:f1:75:77:02:f8:fb:3a:c2:8d:3c:1b:cb:
                    b2:63:2e:89:07:92:6b:b4:e1:ab:ce:30:a1:a4:82:
                    38:30:64:2a:ba:01:c6:ac:ee:03:cc:65:bf:83:3e:
                    39:b8:ce:ac:45:99:97:f9:94:e2:7d:5d:f3:c5:f7:
                    d4:a5:d6:57:cf:24:c1:d7:56:eb:00:9c:5d:80:bc:
                    23:0c:91:d6:8e:2a:62:f6:af:4d:c9:19:5b:dd:16:
                    be:21:54:51:71:be:f2:c6:64:c5:bb:8e:37:49:c9:
                    4d:68:82:3a:42:8a:e3:de:ab:fa:c7:ff:a5:b4:c7:
                    53:8f:17:a4:66:9d:c3:8e:b1
                Exponent: 65537 (0x10001)
        X509v3 extensions:
            X509v3 Key Usage: 
                Digital Signature, Non Repudiation, Key Encipherment
            Netscape Comment: 
                OpenSSL Generated Certificate
            X509v3 Subject Key Identifier: 
                0B:DD:2E:E9:5C:8A:5F:67:C9:75:4C:B3:04:DB:95:2F:D8:74:76:EF
            X509v3 Authority Key Identifier: 
                keyid:1B:2D:E0:A2:26:7F:0D:BA:38:7E:EC:06:81:81:0F:12:74:4C:5A:4D

    Signature Algorithm: sha1WithRSAEncryption
        18:2f:af:1a:27:c7:f8:81:cd:d5:31:a0:f2:06:05:94:d6:12:
        11:88:24:ae:4f:f6:86:18:bf:d0:1b:c9:19:7a:47:30:0e:fb:
        30:b2:50:31:8d:30:6b:8b:54:17:67:bc:b8:c1:d5:1c:6c:95:
        c5:e4:c4:ad:12:39:2f:38:ee:53:6a:cf:be:1c:4f:ac:98:0c:
        ea:eb:0b:48:3d:5e:7a:2b:ed:02:8b:34:89:0a:d8:32:b4:6f:
        f4:b2:06:96:aa:6b:ae:19:38:ec:9f:47:43:3b:7b:bd:71:38:
        99:4f:b4:1e:87:95:73:63:76:d4:ff:21:57:2c:c3:f4:3c:fd:
        cb:c3
-----BEGIN CERTIFICATE-----
MIICyzCCAjSgAwIBAgICEAAwDQYJKoZIhvcNAQEFBQAwaDELMAkGA1UEBhMCREUx
EDAOBgNVBAgTB0hhbWJ1cmcxFzAVBgNVBAoTDk9wZW5PZmZpY2Uub3JnMRQwEgYD
VQQLEwtEZXZlbG9wbWVudDEYMBYGA1UEAxMPU3ViIENBIDEgUm9vdCAzMB4XDTA5
MTEyMDA3NTIyNVoXDTM0MTExNDA3NTIyNVowbzELMAkGA1UEBhMCREUxEDAOBgNV
BAgTB0hhbWJ1cmcxFzAVBgNVBAoTDk9wZW5PZmZpY2Uub3JnMRQwEgYDVQQLEwtE
ZXZlbG9wbWVudDEfMB0GA1UEAxMWVXNlciAxIFN1YiBDQSAxIFJvb3QgMzCBnzAN
BgkqhkiG9w0BAQEFAAOBjQAwgYkCgYEAvILxdXcC+Ps6wo08G8uyYy6JB5JrtOGr
zjChpII4MGQqugHGrO4DzGW/gz45uM6sRZmX+ZTifV3zxffUpdZXzyTB11brAJxd
gLwjDJHWjipi9q9NyRlb3Ra+IVRRcb7yxmTFu443SclNaII6Qorj3qv6x/+ltMdT
jxekZp3DjrECAwEAAaN9MHswCwYDVR0PBAQDAgXgMCwGCWCGSAGG+EIBDQQfFh1P
cGVuU1NMIEdlbmVyYXRlZCBDZXJ0aWZpY2F0ZTAdBgNVHQ4EFgQUC90u6VyKX2fJ
dUyzBNuVL9h0du8wHwYDVR0jBBgwFoAUGy3goiZ/Dbo4fuwGgYEPEnRMWk0wDQYJ
KoZIhvcNAQEFBQADgYEAGC+vGifH+IHN1TGg8gYFlNYSEYgkrk/2hhi/0BvJGXpH
MA77MLJQMY0wa4tUF2e8uMHVHGyVxeTErRI5LzjuU2rPvhxPrJgM6usLSD1eeivt
Aos0iQrYMrRv9LIGlqprrhk47J9HQzt7vXE4mU+0HoeVc2N21P8hVyzD9Dz9y8M=
-----END CERTIFICATE-----
