Certificate:
    Data:
        Version: 3 (0x2)
        Serial Number: 4097 (0x1001)
        Signature Algorithm: sha1WithRSAEncryption
        Issuer: C=DE, ST=Hamburg, O=OpenOffice.org, OU=Development, CN=Sub CA 2 Root 4
        Validity
            Not Before: Nov 20 09:33:39 2009 GMT
            Not After : Nov 14 09:33:39 2034 GMT
        Subject: C=DE, ST=Hamburg, O=OpenOffice.org, OU=Development, CN=User 1 Sub CA 2 Root 4
        Subject Public Key Info:
            Public Key Algorithm: rsaEncryption
            RSA Public Key: (1024 bit)
                Modulus (1024 bit):
                    00:c6:b2:8e:e4:f1:67:0b:07:3c:8c:b8:78:d9:79:
                    b1:2e:d5:10:c5:e8:76:9a:25:3f:dd:a3:0b:e0:3f:
                    9f:50:87:e9:f1:15:74:86:ce:a0:01:07:b2:37:d0:
                    74:dc:96:69:b4:f1:0e:cd:15:37:ca:ba:ed:ea:a3:
                    99:ec:43:d4:ac:1c:8b:9b:18:d0:cd:80:78:49:80:
                    ca:e3:85:c6:2d:9a:15:02:73:d3:97:08:1d:4b:68:
                    95:52:e6:92:57:c7:f6:76:0c:f1:a7:3d:90:10:0c:
                    35:a8:9c:d3:e4:10:30:20:04:7f:ea:ad:ef:39:0c:
                    65:05:43:f4:b6:51:3a:e7:95
                Exponent: 65537 (0x10001)
        X509v3 extensions:
            X509v3 Key Usage: 
                Digital Signature, Non Repudiation, Key Encipherment
            Netscape Comment: 
                OpenSSL Generated Certificate
            X509v3 Subject Key Identifier: 
                79:C2:63:88:76:DF:C6:6F:BD:1D:AF:57:6E:87:08:AC:55:5D:AD:D1
            X509v3 Authority Key Identifier: 
                keyid:69:DE:B6:99:C4:95:F7:5A:FA:41:6B:4C:F6:C3:6D:89:AA:37:31:9D

    Signature Algorithm: sha1WithRSAEncryption
        07:68:5f:e9:01:bc:e4:d7:78:16:2b:19:7f:c2:9d:15:74:91:
        ea:6d:fb:c9:ee:29:07:ff:62:e2:6a:85:5e:85:7d:5f:b4:bc:
        48:e1:89:24:3e:03:21:42:c1:10:3f:c6:41:7e:04:30:86:db:
        c5:7e:7e:9f:04:49:a0:1e:fc:93:8e:b3:d1:cf:39:e3:41:89:
        c3:06:51:3f:15:d5:02:49:2a:0b:15:d1:25:30:12:b6:2a:f9:
        03:06:f1:03:84:ae:4e:86:e1:dc:e6:a3:36:a4:27:24:2b:db:
        3a:3c:15:48:6f:c7:9f:ce:38:34:06:94:e3:d3:64:f7:4d:9e:
        b6:c0
-----BEGIN CERTIFICATE-----
MIICyzCCAjSgAwIBAgICEAEwDQYJKoZIhvcNAQEFBQAwaDELMAkGA1UEBhMCREUx
EDAOBgNVBAgTB0hhbWJ1cmcxFzAVBgNVBAoTDk9wZW5PZmZpY2Uub3JnMRQwEgYD
VQQLEwtEZXZlbG9wbWVudDEYMBYGA1UEAxMPU3ViIENBIDIgUm9vdCA0MB4XDTA5
MTEyMDA5MzMzOVoXDTM0MTExNDA5MzMzOVowbzELMAkGA1UEBhMCREUxEDAOBgNV
BAgTB0hhbWJ1cmcxFzAVBgNVBAoTDk9wZW5PZmZpY2Uub3JnMRQwEgYDVQQLEwtE
ZXZlbG9wbWVudDEfMB0GA1UEAxMWVXNlciAxIFN1YiBDQSAyIFJvb3QgNDCBnzAN
BgkqhkiG9w0BAQEFAAOBjQAwgYkCgYEAxrKO5PFnCwc8jLh42XmxLtUQxeh2miU/
3aML4D+fUIfp8RV0hs6gAQeyN9B03JZptPEOzRU3yrrt6qOZ7EPUrByLmxjQzYB4
SYDK44XGLZoVAnPTlwgdS2iVUuaSV8f2dgzxpz2QEAw1qJzT5BAwIAR/6q3vOQxl
BUP0tlE655UCAwEAAaN9MHswCwYDVR0PBAQDAgXgMCwGCWCGSAGG+EIBDQQfFh1P
cGVuU1NMIEdlbmVyYXRlZCBDZXJ0aWZpY2F0ZTAdBgNVHQ4EFgQUecJjiHbfxm+9
Ha9XbocIrFVdrdEwHwYDVR0jBBgwFoAUad62mcSV91r6QWtM9sNtiao3MZ0wDQYJ
KoZIhvcNAQEFBQADgYEAB2hf6QG85Nd4FisZf8KdFXSR6m37ye4pB/9i4mqFXoV9
X7S8SOGJJD4DIULBED/GQX4EMIbbxX5+nwRJoB78k46z0c8540GJwwZRPxXVAkkq
CxXRJTAStir5AwbxA4SuTobh3OajNqQnJCvbOjwVSG/Hn844NAaU49Nk902etsA=
-----END CERTIFICATE-----
