Certificate:
    Data:
        Version: 3 (0x2)
        Serial Number: 4098 (0x1002)
        Signature Algorithm: sha1WithRSAEncryption
        Issuer: C=DE, ST=Hamburg, O=OpenOffice.org, OU=Development, CN=Sub CA 2 Root 4
        Validity
            Not Before: Nov 20 09:51:05 2009 GMT
            Not After : Nov 14 09:51:05 2034 GMT
        Subject: C=DE, ST=Hamburg, O=OpenOffice.org, OU=Development, CN=User 2 Sub CA 2 Root 4
        Subject Public Key Info:
            Public Key Algorithm: rsaEncryption
            RSA Public Key: (1024 bit)
                Modulus (1024 bit):
                    00:f5:2d:4a:b8:5d:39:da:58:5c:3c:a5:7d:4c:98:
                    b8:32:db:43:a0:13:cb:25:f8:5b:0b:6a:f2:e0:8d:
                    de:8f:c6:ea:c5:1c:03:bf:e0:b1:c9:14:a4:85:4b:
                    ed:95:87:f7:88:88:86:9e:65:3d:6e:e8:c5:be:17:
                    e6:9b:09:8e:44:c1:0a:20:00:ae:b4:3d:ba:68:9f:
                    3e:ea:76:3c:96:64:ee:a7:91:65:31:03:f5:fd:01:
                    e5:60:a0:5e:62:a0:37:7b:db:cf:71:78:58:cc:dd:
                    74:fc:b3:b1:2e:6b:f3:ec:ad:ac:75:ae:d8:d6:42:
                    28:0a:20:68:8d:20:4a:30:61
                Exponent: 65537 (0x10001)
        X509v3 extensions:
            X509v3 Key Usage: 
                Digital Signature, Non Repudiation, Key Encipherment
            Netscape Comment: 
                OpenSSL Generated Certificate
            X509v3 Subject Key Identifier: 
                32:E4:11:DF:CD:54:D6:80:67:68:85:36:A0:C5:14:88:D6:85:DB:C9
            X509v3 Authority Key Identifier: 
                keyid:69:DE:B6:99:C4:95:F7:5A:FA:41:6B:4C:F6:C3:6D:89:AA:37:31:9D

    Signature Algorithm: sha1WithRSAEncryption
        e1:c2:5d:63:42:27:f4:df:a2:f0:f5:61:c3:e3:ac:f7:b6:29:
        a9:dd:34:63:0c:cc:c9:7b:5c:1b:ac:77:8f:1a:e1:f4:3b:c8:
        96:8a:89:f6:c0:f0:c4:3b:bd:6e:b7:e7:84:5c:38:4f:d3:66:
        55:d6:d3:f8:70:1f:14:ce:9f:d3:04:68:be:6b:81:fc:6c:b6:
        2f:31:3d:de:2a:4e:6c:66:c0:c2:09:c8:ef:be:c4:88:39:28:
        e8:62:da:44:63:f4:5c:f4:bb:cf:4b:54:c9:c0:ce:b4:27:7b:
        1e:9c:2f:90:9e:18:da:8a:27:af:e5:37:ea:3f:99:86:f8:5d:
        d1:cb
-----BEGIN CERTIFICATE-----
MIICyzCCAjSgAwIBAgICEAIwDQYJKoZIhvcNAQEFBQAwaDELMAkGA1UEBhMCREUx
EDAOBgNVBAgTB0hhbWJ1cmcxFzAVBgNVBAoTDk9wZW5PZmZpY2Uub3JnMRQwEgYD
VQQLEwtEZXZlbG9wbWVudDEYMBYGA1UEAxMPU3ViIENBIDIgUm9vdCA0MB4XDTA5
MTEyMDA5NTEwNVoXDTM0MTExNDA5NTEwNVowbzELMAkGA1UEBhMCREUxEDAOBgNV
BAgTB0hhbWJ1cmcxFzAVBgNVBAoTDk9wZW5PZmZpY2Uub3JnMRQwEgYDVQQLEwtE
ZXZlbG9wbWVudDEfMB0GA1UEAxMWVXNlciAyIFN1YiBDQSAyIFJvb3QgNDCBnzAN
BgkqhkiG9w0BAQEFAAOBjQAwgYkCgYEA9S1KuF052lhcPKV9TJi4MttDoBPLJfhb
C2ry4I3ej8bqxRwDv+CxyRSkhUvtlYf3iIiGnmU9bujFvhfmmwmORMEKIACutD26
aJ8+6nY8lmTup5FlMQP1/QHlYKBeYqA3e9vPcXhYzN10/LOxLmvz7K2sda7Y1kIo
CiBojSBKMGECAwEAAaN9MHswCwYDVR0PBAQDAgXgMCwGCWCGSAGG+EIBDQQfFh1P
cGVuU1NMIEdlbmVyYXRlZCBDZXJ0aWZpY2F0ZTAdBgNVHQ4EFgQUMuQR381U1oBn
aIU2oMUUiNaF28kwHwYDVR0jBBgwFoAUad62mcSV91r6QWtM9sNtiao3MZ0wDQYJ
KoZIhvcNAQEFBQADgYEA4cJdY0In9N+i8PVhw+Os97Ypqd00YwzMyXtcG6x3jxrh
9DvIloqJ9sDwxDu9brfnhFw4T9NmVdbT+HAfFM6f0wRovmuB/Gy2LzE93ipObGbA
wgnI777EiDko6GLaRGP0XPS7z0tUycDOtCd7HpwvkJ4Y2oonr+U36j+Zhvhd0cs=
-----END CERTIFICATE-----
