Certificate:
    Data:
        Version: 3 (0x2)
        Serial Number: 4097 (0x1001)
        Signature Algorithm: sha1WithRSAEncryption
        Issuer: C=DE, ST=Hamburg, O=OpenOffice.org, OU=Development, CN=Root 7
        Validity
            Not Before: Nov 20 13:35:06 2009 GMT
            Not After : Nov 14 13:35:06 2034 GMT
        Subject: C=DE, ST=Hamburg, O=OpenOffice.org, OU=Development, CN=Sub CA 2 Root 7
        Subject Public Key Info:
            Public Key Algorithm: rsaEncryption
            RSA Public Key: (1024 bit)
                Modulus (1024 bit):
                    00:f9:3f:5e:76:52:9a:ce:5d:98:b0:00:d8:e0:65:
                    e7:78:11:4c:7b:c7:e2:d3:44:bf:8e:60:42:69:3e:
                    75:67:65:24:ab:f7:07:d8:9d:be:0f:23:b5:c1:26:
                    00:6b:c3:22:84:72:a9:96:dc:5f:63:fc:f5:e0:e3:
                    cc:da:0c:74:e9:31:51:91:89:27:8f:e5:17:41:6e:
                    3d:5e:2a:13:cd:08:f7:f3:61:34:a1:f7:79:c6:bd:
                    5d:2c:34:01:ea:5a:8c:48:97:36:d6:57:e0:80:03:
                    2e:7a:03:83:4c:bd:b4:af:a2:fd:d7:4b:1a:f7:ab:
                    9f:5a:22:2b:d1:25:73:dd:6f
                Exponent: 65537 (0x10001)
        X509v3 extensions:
            X509v3 Subject Key Identifier: 
                3B:50:26:45:6C:E2:FE:28:B1:71:0A:A8:95:2D:78:63:8E:2C:48:92
            X509v3 Authority Key Identifier: 
                keyid:80:C6:F8:0B:5F:7C:49:E4:86:FD:C8:92:C6:80:70:D9:C0:6F:7B:DE
                DirName:/C=DE/ST=Hamburg/O=OpenOffice.org/OU=Development/CN=Root 7
                serial:D5:E6:63:5F:18:09:82:89

            X509v3 CRL Distribution Points: 
                URI:http://localhost:8901/demoCA/crl/Root_7.crl

            X509v3 Basic Constraints: critical
                CA:TRUE
    Signature Algorithm: sha1WithRSAEncryption
        5f:b4:70:11:4f:d9:df:6a:6a:5a:4a:97:fe:8b:5d:9e:46:84:
        e2:27:67:41:7c:a9:2e:9d:77:cc:e4:8c:d6:16:3c:39:7d:51:
        29:60:80:32:4f:a1:d0:b4:7f:2a:e5:60:f4:b8:d3:3b:94:f8:
        a5:fb:15:99:cf:a9:c5:a7:59:c1:11:89:67:11:9c:ff:a9:ac:
        dd:ca:a9:92:a8:60:26:c3:ab:74:41:86:b9:4d:1e:4a:c5:de:
        63:e6:da:2a:36:39:7b:6c:66:f3:20:57:d1:f1:36:4b:69:c5:
        04:a3:1f:cf:de:0c:10:d0:3f:07:e2:8e:0f:cd:41:26:c9:2e:
        e9:1b
-----BEGIN CERTIFICATE-----
MIIDRjCCAq+gAwIBAgICEAEwDQYJKoZIhvcNAQEFBQAwXzELMAkGA1UEBhMCREUx
EDAOBgNVBAgTB0hhbWJ1cmcxFzAVBgNVBAoTDk9wZW5PZmZpY2Uub3JnMRQwEgYD
VQQLEwtEZXZlbG9wbWVudDEPMA0GA1UEAxMGUm9vdCA3MB4XDTA5MTEyMDEzMzUw
NloXDTM0MTExNDEzMzUwNlowaDELMAkGA1UEBhMCREUxEDAOBgNVBAgTB0hhbWJ1
cmcxFzAVBgNVBAoTDk9wZW5PZmZpY2Uub3JnMRQwEgYDVQQLEwtEZXZlbG9wbWVu
dDEYMBYGA1UEAxMPU3ViIENBIDIgUm9vdCA3MIGfMA0GCSqGSIb3DQEBAQUAA4GN
ADCBiQKBgQD5P152UprOXZiwANjgZed4EUx7x+LTRL+OYEJpPnVnZSSr9wfYnb4P
I7XBJgBrwyKEcqmW3F9j/PXg48zaDHTpMVGRiSeP5RdBbj1eKhPNCPfzYTSh93nG
vV0sNAHqWoxIlzbWV+CAAy56A4NMvbSvov3XSxr3q59aIivRJXPdbwIDAQABo4IB
BjCCAQIwHQYDVR0OBBYEFDtQJkVs4v4osXEKqJUteGOOLEiSMIGRBgNVHSMEgYkw
gYaAFIDG+AtffEnkhv3IksaAcNnAb3veoWOkYTBfMQswCQYDVQQGEwJERTEQMA4G
A1UECBMHSGFtYnVyZzEXMBUGA1UEChMOT3Blbk9mZmljZS5vcmcxFDASBgNVBAsT
C0RldmVsb3BtZW50MQ8wDQYDVQQDEwZSb290IDeCCQDV5mNfGAmCiTA8BgNVHR8E
NTAzMDGgL6AthitodHRwOi8vbG9jYWxob3N0Ojg5MDEvZGVtb0NBL2NybC9Sb290
XzcuY3JsMA8GA1UdEwEB/wQFMAMBAf8wDQYJKoZIhvcNAQEFBQADgYEAX7RwEU/Z
32pqWkqX/otdnkaE4idnQXypLp13zOSM1hY8OX1RKWCAMk+h0LR/KuVg9LjTO5T4
pfsVmc+pxadZwRGJZxGc/6ms3cqpkqhgJsOrdEGGuU0eSsXeY+baKjY5e2xm8yBX
0fE2S2nFBKMfz94MENA/B+KOD81BJsku6Rs=
-----END CERTIFICATE-----
