Certificate:
    Data:
        Version: 3 (0x2)
        Serial Number: 4096 (0x1000)
        Signature Algorithm: sha1WithRSAEncryption
        Issuer: C=DE, ST=Hamburg, O=OpenOffice.org, OU=Development, CN=Root 2
        Validity
            Not Before: Nov 18 15:55:38 2009 GMT
            Not After : Nov 12 15:55:38 2034 GMT
        Subject: C=DE, ST=Hamburg, O=OpenOffice.org, OU=Development, CN=Sub CA 1 Root 2
        Subject Public Key Info:
            Public Key Algorithm: rsaEncryption
            RSA Public Key: (1024 bit)
                Modulus (1024 bit):
                    00:f0:7a:16:4c:ab:06:b2:af:27:9c:7d:3f:86:da:
                    de:7a:c3:01:67:77:56:49:09:ed:ed:31:72:83:e8:
                    75:9c:4c:ce:f9:97:b6:63:3c:e2:ca:83:80:92:03:
                    9c:96:e2:de:72:79:c1:cf:3e:3f:b9:0d:b4:87:c7:
                    75:e6:56:8d:aa:f8:77:47:11:4e:fe:07:b0:1d:64:
                    06:73:4b:6f:d4:ac:da:0f:05:87:b1:f1:98:a9:f5:
                    8a:a1:a8:ed:17:9c:26:b8:da:92:63:d2:53:87:e6:
                    fc:ed:44:de:94:56:90:3e:a2:a1:67:08:cb:38:d4:
                    cf:17:3b:7e:ff:7a:97:c0:7b
                Exponent: 65537 (0x10001)
        X509v3 extensions:
            X509v3 Subject Key Identifier: 
                8C:F3:2C:30:A2:E8:62:50:70:BC:FC:71:A0:41:FA:E0:58:B4:4D:B8
            X509v3 Authority Key Identifier: 
                keyid:5F:BC:4C:DA:EB:0A:0C:B5:23:43:5E:24:32:27:79:41:F5:82:A3:02
                DirName:/C=DE/ST=Hamburg/O=OpenOffice.org/OU=Development/CN=Root 2
                serial:A2:AF:15:89:EC:73:54:86

            X509v3 Basic Constraints: critical
                CA:TRUE
    Signature Algorithm: sha1WithRSAEncryption
        52:83:16:ab:0e:43:2d:b3:e4:0f:6c:c1:63:d4:86:ac:e7:1e:
        ee:7b:ee:9b:0c:ff:4f:e0:59:d5:e4:27:af:68:bf:a7:f5:2a:
        a3:c9:e3:2b:8d:b7:31:26:f6:04:80:4e:f2:a5:bf:da:63:5e:
        8c:d6:c6:b2:46:a0:46:10:2f:84:9f:02:76:f3:c8:33:05:62:
        0c:5f:2d:cc:06:23:53:9f:d9:f8:46:e4:2e:5c:da:05:fc:bf:
        db:45:b4:ac:8d:8b:b5:4b:60:7b:7b:26:34:7f:b1:4b:41:96:
        41:26:70:7a:9d:78:a2:9b:e0:de:62:a2:04:86:9f:ed:7c:a6:
        20:eb
-----BEGIN CERTIFICATE-----
MIIDBjCCAm+gAwIBAgICEAAwDQYJKoZIhvcNAQEFBQAwXzELMAkGA1UEBhMCREUx
EDAOBgNVBAgTB0hhbWJ1cmcxFzAVBgNVBAoTDk9wZW5PZmZpY2Uub3JnMRQwEgYD
VQQLEwtEZXZlbG9wbWVudDEPMA0GA1UEAxMGUm9vdCAyMB4XDTA5MTExODE1NTUz
OFoXDTM0MTExMjE1NTUzOFowaDELMAkGA1UEBhMCREUxEDAOBgNVBAgTB0hhbWJ1
cmcxFzAVBgNVBAoTDk9wZW5PZmZpY2Uub3JnMRQwEgYDVQQLEwtEZXZlbG9wbWVu
dDEYMBYGA1UEAxMPU3ViIENBIDEgUm9vdCAyMIGfMA0GCSqGSIb3DQEBAQUAA4GN
ADCBiQKBgQDwehZMqwayryecfT+G2t56wwFnd1ZJCe3tMXKD6HWcTM75l7ZjPOLK
g4CSA5yW4t5yecHPPj+5DbSHx3XmVo2q+HdHEU7+B7AdZAZzS2/UrNoPBYex8Zip
9YqhqO0XnCa42pJj0lOH5vztRN6UVpA+oqFnCMs41M8XO37/epfAewIDAQABo4HH
MIHEMB0GA1UdDgQWBBSM8ywwouhiUHC8/HGgQfrgWLRNuDCBkQYDVR0jBIGJMIGG
gBRfvEza6woMtSNDXiQyJ3lB9YKjAqFjpGEwXzELMAkGA1UEBhMCREUxEDAOBgNV
BAgTB0hhbWJ1cmcxFzAVBgNVBAoTDk9wZW5PZmZpY2Uub3JnMRQwEgYDVQQLEwtE
ZXZlbG9wbWVudDEPMA0GA1UEAxMGUm9vdCAyggkAoq8ViexzVIYwDwYDVR0TAQH/
BAUwAwEB/zANBgkqhkiG9w0BAQUFAAOBgQBSgxarDkMts+QPbMFj1Ias5x7ue+6b
DP9P4FnV5CevaL+n9SqjyeMrjbcxJvYEgE7ypb/aY16M1sayRqBGEC+EnwJ288gz
BWIMXy3MBiNTn9n4RuQuXNoF/L/bRbSsjYu1S2B7eyY0f7FLQZZBJnB6nXiim+De
YqIEhp/tfKYg6w==
-----END CERTIFICATE-----
