Certificate:
    Data:
        Version: 3 (0x2)
        Serial Number: 4097 (0x1001)
        Signature Algorithm: sha1WithRSAEncryption
        Issuer: C=DE, ST=Hamburg, O=OpenOffice.org, OU=Development, CN=Root 6
        Validity
            Not Before: Nov 20 12:28:07 2009 GMT
            Not After : Nov 14 12:28:07 2034 GMT
        Subject: C=DE, ST=Hamburg, O=OpenOffice.org, OU=Development, CN=Sub CA 1 Root 6
        Subject Public Key Info:
            Public Key Algorithm: rsaEncryption
            RSA Public Key: (1024 bit)
                Modulus (1024 bit):
                    00:c4:d9:ab:27:06:66:41:0e:36:ff:d4:b1:d0:8c:
                    f7:b4:25:55:cd:fd:fa:a4:5a:e6:4f:d0:05:dc:a3:
                    e5:bd:8d:53:77:d1:ea:95:5a:52:81:c8:b6:36:a0:
                    5f:3a:e1:85:1e:8a:48:91:7d:29:78:ff:ea:c5:e3:
                    ad:c4:27:d5:b7:8f:59:20:26:d4:45:87:6a:56:db:
                    ac:f5:f8:0a:88:82:9e:c2:00:06:fc:98:8a:fe:35:
                    c3:02:a1:67:08:06:42:e3:88:48:e0:8f:33:ff:f8:
                    a4:87:1a:3a:d9:54:0e:1c:09:3e:a0:f0:70:cd:b5:
                    b0:b2:7e:07:73:ad:20:64:69
                Exponent: 65537 (0x10001)
        X509v3 extensions:
            X509v3 Subject Key Identifier: 
                89:8C:D7:71:EB:67:78:4E:D6:01:35:B2:AC:A1:B4:88:43:CE:70:A7
            X509v3 Authority Key Identifier: 
                keyid:AC:25:5E:9B:B5:BA:4D:8E:BD:77:B2:9D:D9:E2:84:AE:7A:31:8F:F2
                DirName:/C=DE/ST=Hamburg/O=OpenOffice.org/OU=Development/CN=Root 6
                serial:D8:6A:4F:24:F9:C9:94:27

            X509v3 CRL Distribution Points: 
                URI:http://localhost:8901/demoCA/crl/Root_6.crl

            X509v3 Basic Constraints: critical
                CA:TRUE
    Signature Algorithm: sha1WithRSAEncryption
        55:5b:3b:6b:8a:d0:1b:d8:19:d9:96:85:4d:b4:a0:98:b1:bd:
        9f:0b:62:21:92:8b:4e:d3:d0:1b:91:3d:e3:f5:bd:ce:16:57:
        fc:b7:84:15:51:fd:98:ab:32:59:28:0b:44:57:49:ec:ac:11:
        67:26:7a:a3:c5:b8:9d:2a:de:b6:7c:76:0a:e9:18:9f:98:87:
        e8:80:c8:72:99:56:74:ab:73:1b:f4:e7:b9:b1:3a:f3:7b:0d:
        2f:5d:82:6c:d1:99:9f:23:be:23:fb:4c:0e:15:5e:f5:9f:90:
        88:d7:51:3a:6a:7a:f0:54:a5:c4:89:a5:0d:0a:4e:94:59:64:
        59:54
-----BEGIN CERTIFICATE-----
MIIDRjCCAq+gAwIBAgICEAEwDQYJKoZIhvcNAQEFBQAwXzELMAkGA1UEBhMCREUx
EDAOBgNVBAgTB0hhbWJ1cmcxFzAVBgNVBAoTDk9wZW5PZmZpY2Uub3JnMRQwEgYD
VQQLEwtEZXZlbG9wbWVudDEPMA0GA1UEAxMGUm9vdCA2MB4XDTA5MTEyMDEyMjgw
N1oXDTM0MTExNDEyMjgwN1owaDELMAkGA1UEBhMCREUxEDAOBgNVBAgTB0hhbWJ1
cmcxFzAVBgNVBAoTDk9wZW5PZmZpY2Uub3JnMRQwEgYDVQQLEwtEZXZlbG9wbWVu
dDEYMBYGA1UEAxMPU3ViIENBIDEgUm9vdCA2MIGfMA0GCSqGSIb3DQEBAQUAA4GN
ADCBiQKBgQDE2asnBmZBDjb/1LHQjPe0JVXN/fqkWuZP0AXco+W9jVN30eqVWlKB
yLY2oF864YUeikiRfSl4/+rF463EJ9W3j1kgJtRFh2pW26z1+AqIgp7CAAb8mIr+
NcMCoWcIBkLjiEjgjzP/+KSHGjrZVA4cCT6g8HDNtbCyfgdzrSBkaQIDAQABo4IB
BjCCAQIwHQYDVR0OBBYEFImM13HrZ3hO1gE1sqyhtIhDznCnMIGRBgNVHSMEgYkw
gYaAFKwlXpu1uk2OvXeyndnihK56MY/yoWOkYTBfMQswCQYDVQQGEwJERTEQMA4G
A1UECBMHSGFtYnVyZzEXMBUGA1UEChMOT3Blbk9mZmljZS5vcmcxFDASBgNVBAsT
C0RldmVsb3BtZW50MQ8wDQYDVQQDEwZSb290IDaCCQDYak8k+cmUJzA8BgNVHR8E
NTAzMDGgL6AthitodHRwOi8vbG9jYWxob3N0Ojg5MDEvZGVtb0NBL2NybC9Sb290
XzYuY3JsMA8GA1UdEwEB/wQFMAMBAf8wDQYJKoZIhvcNAQEFBQADgYEAVVs7a4rQ
G9gZ2ZaFTbSgmLG9nwtiIZKLTtPQG5E94/W9zhZX/LeEFVH9mKsyWSgLRFdJ7KwR
ZyZ6o8W4nSretnx2CukYn5iH6IDIcplWdKtzG/TnubE683sNL12CbNGZnyO+I/tM
DhVe9Z+QiNdROmp68FSlxImlDQpOlFlkWVQ=
-----END CERTIFICATE-----
