Certificate:
    Data:
        Version: 3 (0x2)
        Serial Number: 4097 (0x1001)
        Signature Algorithm: sha1WithRSAEncryption
        Issuer: C=DE, ST=Hamburg, O=OpenOffice.org, OU=Development, CN=Sub CA 1 Root 8
        Validity
            Not Before: Nov 20 15:47:16 2009 GMT
            Not After : Nov 14 15:47:16 2034 GMT
        Subject: C=DE, ST=Hamburg, O=OpenOffice.org, OU=Development, CN=User 2 Sub CA 1 Root 8
        Subject Public Key Info:
            Public Key Algorithm: rsaEncryption
            RSA Public Key: (1024 bit)
                Modulus (1024 bit):
                    00:a1:55:67:7e:e5:7a:62:eb:2b:36:45:fa:1d:4d:
                    c7:0e:6d:db:f6:54:65:4d:55:39:14:ea:c1:ad:75:
                    1b:2f:2f:3c:6e:67:e0:6d:c6:76:66:0c:11:a2:89:
                    fe:70:3b:24:3e:0d:2a:13:9f:86:b4:8a:a3:27:50:
                    52:77:1f:b8:7b:85:4e:36:94:68:4f:23:2c:f6:a1:
                    0f:01:bc:6d:d4:e9:a4:54:12:15:37:bd:6c:ba:ad:
                    ed:78:ed:00:cc:be:a9:20:99:f5:a5:db:96:ba:cb:
                    89:6b:ff:30:36:5c:84:77:a8:0d:28:d3:f8:20:99:
                    01:4d:0f:8e:b3:8e:de:8d:09
                Exponent: 65537 (0x10001)
        X509v3 extensions:
            Authority Information Access: 
                OCSP - URI:http://localhost:8889

            X509v3 Key Usage: 
                Digital Signature, Non Repudiation, Key Encipherment
            X509v3 Subject Key Identifier: 
                FC:DC:A7:1C:CE:D2:A9:DA:9A:76:9D:AE:8F:C8:1E:56:BA:D2:D5:D5
            X509v3 Authority Key Identifier: 
                keyid:EF:BD:C8:8E:78:79:F9:76:4B:11:59:B6:C3:32:10:07:C0:BC:E3:8A

    Signature Algorithm: sha1WithRSAEncryption
        87:30:ed:08:e6:03:fa:cf:65:5a:ed:9e:83:db:64:5f:bb:6b:
        5c:f3:db:8d:b7:d0:95:35:8c:f6:c1:1c:2c:d9:0c:0a:41:27:
        f9:1f:e4:aa:25:95:59:3c:45:85:ac:0f:02:42:92:67:e2:09:
        45:d3:c1:7b:6e:db:42:84:7b:0d:57:47:f5:07:38:dd:cf:38:
        ac:29:b9:14:79:2e:04:a5:a0:d6:71:be:fa:6d:9e:b5:cd:89:
        99:d1:47:58:56:81:8c:d4:b0:96:c6:dc:a7:1b:b0:ef:6b:0c:
        25:5f:92:b8:01:b7:74:f0:e3:49:eb:30:29:9f:f3:b5:bd:ae:
        45:99
-----BEGIN CERTIFICATE-----
MIIC0jCCAjugAwIBAgICEAEwDQYJKoZIhvcNAQEFBQAwaDELMAkGA1UEBhMCREUx
EDAOBgNVBAgTB0hhbWJ1cmcxFzAVBgNVBAoTDk9wZW5PZmZpY2Uub3JnMRQwEgYD
VQQLEwtEZXZlbG9wbWVudDEYMBYGA1UEAxMPU3ViIENBIDEgUm9vdCA4MB4XDTA5
MTEyMDE1NDcxNloXDTM0MTExNDE1NDcxNlowbzELMAkGA1UEBhMCREUxEDAOBgNV
BAgTB0hhbWJ1cmcxFzAVBgNVBAoTDk9wZW5PZmZpY2Uub3JnMRQwEgYDVQQLEwtE
ZXZlbG9wbWVudDEfMB0GA1UEAxMWVXNlciAyIFN1YiBDQSAxIFJvb3QgODCBnzAN
BgkqhkiG9w0BAQEFAAOBjQAwgYkCgYEAoVVnfuV6YusrNkX6HU3HDm3b9lRlTVU5
FOrBrXUbLy88bmfgbcZ2ZgwRoon+cDskPg0qE5+GtIqjJ1BSdx+4e4VONpRoTyMs
9qEPAbxt1OmkVBIVN71suq3teO0AzL6pIJn1pduWusuJa/8wNlyEd6gNKNP4IJkB
TQ+Os47ejQkCAwEAAaOBgzCBgDAxBggrBgEFBQcBAQQlMCMwIQYIKwYBBQUHMAGG
FWh0dHA6Ly9sb2NhbGhvc3Q6ODg4OTALBgNVHQ8EBAMCBeAwHQYDVR0OBBYEFPzc
pxzO0qnamnadro/IHla60tXVMB8GA1UdIwQYMBaAFO+9yI54efl2SxFZtsMyEAfA
vOOKMA0GCSqGSIb3DQEBBQUAA4GBAIcw7QjmA/rPZVrtnoPbZF+7a1zz24230JU1
jPbBHCzZDApBJ/kf5KollVk8RYWsDwJCkmfiCUXTwXtu20KEew1XR/UHON3POKwp
uRR5LgSloNZxvvptnrXNiZnRR1hWgYzUsJbG3KcbsO9rDCVfkrgBt3Tw40nrMCmf
87W9rkWZ
-----END CERTIFICATE-----
