Certificate:
    Data:
        Version: 3 (0x2)
        Serial Number: 4097 (0x1001)
        Signature Algorithm: sha1WithRSAEncryption
        Issuer: C=DE, ST=Hamburg, O=OpenOffice.org, OU=Development, CN=Root 5
        Validity
            Not Before: Nov 20 11:30:23 2009 GMT
            Not After : Nov 14 11:30:23 2034 GMT
        Subject: C=DE, ST=Hamburg, O=OpenOffice.org, OU=Development, CN=Sub CA 1 Root 5
        Subject Public Key Info:
            Public Key Algorithm: rsaEncryption
            RSA Public Key: (1024 bit)
                Modulus (1024 bit):
                    00:97:fa:a2:49:d3:bf:c1:2e:7a:ed:83:83:3c:78:
                    96:c8:b2:b9:67:af:c0:5e:0a:89:89:fb:94:59:32:
                    a8:2a:e4:20:2f:3b:3d:ce:53:4f:72:fc:6c:0b:93:
                    38:c3:df:66:6e:d5:79:d0:a4:4e:41:84:43:3c:99:
                    79:0c:e0:5f:19:1a:3d:f5:4b:11:28:0f:80:b0:a0:
                    71:34:5b:90:71:c2:ef:1e:85:2e:5b:9f:3b:22:c3:
                    18:f8:7c:1f:ef:1b:78:17:a0:44:60:46:7e:88:eb:
                    a7:60:a0:5c:2a:7c:37:99:fa:27:97:08:e8:89:ba:
                    bc:69:4b:79:93:8f:ad:b5:9b
                Exponent: 65537 (0x10001)
        X509v3 extensions:
            X509v3 Subject Key Identifier: 
                01:E9:B5:99:E4:6D:F9:8C:42:3D:09:10:0F:A7:75:C6:27:78:4A:AF
            X509v3 Authority Key Identifier: 
                keyid:C1:D1:A0:D4:5B:0B:9D:7E:31:61:F9:39:10:9F:31:10:E0:D2:06:B5
                DirName:/C=DE/ST=Hamburg/O=OpenOffice.org/OU=Development/CN=Root 5
                serial:F0:3D:B6:A9:A9:9C:A3:4E

            X509v3 CRL Distribution Points: 
                URI:http://localhost:8901/demoCA/crl/Root_5.crl

            X509v3 Basic Constraints: critical
                CA:TRUE
    Signature Algorithm: sha1WithRSAEncryption
        6d:ca:34:05:99:ff:99:49:d3:6d:9d:ad:c6:99:da:9d:6c:94:
        62:77:ed:1c:39:23:d2:e8:b6:3e:df:63:dc:7c:10:3f:c2:ed:
        f4:04:26:58:05:01:4c:ed:a9:83:43:3a:5d:fe:60:6d:5b:58:
        dc:93:8c:94:69:b6:7f:02:48:30:9c:31:f4:7d:de:e0:de:04:
        d2:dc:79:b7:60:c2:87:f7:c7:92:a2:f5:86:a7:0c:70:3b:a3:
        a7:35:11:cf:a4:28:21:aa:8b:24:50:2e:96:41:be:66:01:bd:
        b9:ec:04:0c:92:d9:8a:e7:a0:96:24:9b:f1:a2:9f:59:59:4a:
        32:a4
-----BEGIN CERTIFICATE-----
MIIDRjCCAq+gAwIBAgICEAEwDQYJKoZIhvcNAQEFBQAwXzELMAkGA1UEBhMCREUx
EDAOBgNVBAgTB0hhbWJ1cmcxFzAVBgNVBAoTDk9wZW5PZmZpY2Uub3JnMRQwEgYD
VQQLEwtEZXZlbG9wbWVudDEPMA0GA1UEAxMGUm9vdCA1MB4XDTA5MTEyMDExMzAy
M1oXDTM0MTExNDExMzAyM1owaDELMAkGA1UEBhMCREUxEDAOBgNVBAgTB0hhbWJ1
cmcxFzAVBgNVBAoTDk9wZW5PZmZpY2Uub3JnMRQwEgYDVQQLEwtEZXZlbG9wbWVu
dDEYMBYGA1UEAxMPU3ViIENBIDEgUm9vdCA1MIGfMA0GCSqGSIb3DQEBAQUAA4GN
ADCBiQKBgQCX+qJJ07/BLnrtg4M8eJbIsrlnr8BeComJ+5RZMqgq5CAvOz3OU09y
/GwLkzjD32Zu1XnQpE5BhEM8mXkM4F8ZGj31SxEoD4CwoHE0W5Bxwu8ehS5bnzsi
wxj4fB/vG3gXoERgRn6I66dgoFwqfDeZ+ieXCOiJurxpS3mTj621mwIDAQABo4IB
BjCCAQIwHQYDVR0OBBYEFAHptZnkbfmMQj0JEA+ndcYneEqvMIGRBgNVHSMEgYkw
gYaAFMHRoNRbC51+MWH5ORCfMRDg0ga1oWOkYTBfMQswCQYDVQQGEwJERTEQMA4G
A1UECBMHSGFtYnVyZzEXMBUGA1UEChMOT3Blbk9mZmljZS5vcmcxFDASBgNVBAsT
C0RldmVsb3BtZW50MQ8wDQYDVQQDEwZSb290IDWCCQDwPbapqZyjTjA8BgNVHR8E
NTAzMDGgL6AthitodHRwOi8vbG9jYWxob3N0Ojg5MDEvZGVtb0NBL2NybC9Sb290
XzUuY3JsMA8GA1UdEwEB/wQFMAMBAf8wDQYJKoZIhvcNAQEFBQADgYEAbco0BZn/
mUnTbZ2txpnanWyUYnftHDkj0ui2Pt9j3HwQP8Lt9AQmWAUBTO2pg0M6Xf5gbVtY
3JOMlGm2fwJIMJwx9H3e4N4E0tx5t2DCh/fHkqL1hqcMcDujpzURz6QoIaqLJFAu
lkG+ZgG9uewEDJLZiuegliSb8aKfWVlKMqQ=
-----END CERTIFICATE-----
