Certificate:
    Data:
        Version: 3 (0x2)
        Serial Number: 4096 (0x1000)
        Signature Algorithm: sha1WithRSAEncryption
        Issuer: C=DE, ST=Hamburg, O=OpenOffice.org, OU=Development, CN=Sub CA 1 Root 8
        Validity
            Not Before: Nov 20 15:42:12 2009 GMT
            Not After : Nov 14 15:42:12 2034 GMT
        Subject: C=DE, ST=Hamburg, O=OpenOffice.org, OU=Development, CN=User 1 Sub CA 1 Root 8
        Subject Public Key Info:
            Public Key Algorithm: rsaEncryption
            RSA Public Key: (1024 bit)
                Modulus (1024 bit):
                    00:b6:aa:34:ec:31:e5:9a:aa:fe:90:31:1f:e5:83:
                    90:cb:9a:9e:15:cd:bb:35:1b:fc:3c:8b:d9:3d:29:
                    de:f4:07:3f:4c:06:9b:4f:db:21:a2:4b:87:8b:fd:
                    b4:61:31:de:34:6c:14:10:f9:a7:7a:e0:0a:e9:bf:
                    b3:83:a3:35:44:f4:ad:c3:d0:60:e8:71:8e:6d:c0:
                    70:9a:16:85:65:7a:82:68:7c:67:ee:57:31:6b:e8:
                    fd:f2:3f:5f:c7:ec:4e:db:e7:8a:98:d6:15:45:13:
                    14:03:bc:4e:8a:03:48:c2:e4:aa:c5:32:cf:80:82:
                    45:16:8b:63:37:4b:d5:7a:97
                Exponent: 65537 (0x10001)
        X509v3 extensions:
            Authority Information Access: 
                OCSP - URI:http://localhost:8889

            X509v3 Key Usage: 
                Digital Signature, Non Repudiation, Key Encipherment
            X509v3 Subject Key Identifier: 
                4E:0B:28:05:B5:07:8F:77:1E:A6:37:CB:CC:F0:CB:09:A4:8C:4A:1E
            X509v3 Authority Key Identifier: 
                keyid:EF:BD:C8:8E:78:79:F9:76:4B:11:59:B6:C3:32:10:07:C0:BC:E3:8A

    Signature Algorithm: sha1WithRSAEncryption
        3e:f7:c5:94:58:2f:18:c9:11:29:29:28:33:bb:e7:6c:70:7c:
        f8:c7:60:4a:e5:37:f2:bb:78:d9:52:1e:c2:a3:dd:b1:7f:da:
        e1:8a:8b:9c:7e:d6:ee:ec:ef:94:37:b5:b8:97:26:92:01:56:
        78:15:44:4b:95:4d:d9:59:12:b0:89:86:e4:b5:7d:b4:73:0f:
        f1:0d:a8:04:69:e4:3f:2a:6a:65:b9:0e:9a:06:f7:16:29:94:
        4d:ac:64:ab:e9:0f:06:3c:74:fe:4c:e1:71:98:bd:9f:bb:c1:
        2d:47:70:6a:3c:b3:76:0b:fc:c8:05:d6:4e:bf:33:9f:dd:58:
        74:9c
-----BEGIN CERTIFICATE-----
MIIC0jCCAjugAwIBAgICEAAwDQYJKoZIhvcNAQEFBQAwaDELMAkGA1UEBhMCREUx
EDAOBgNVBAgTB0hhbWJ1cmcxFzAVBgNVBAoTDk9wZW5PZmZpY2Uub3JnMRQwEgYD
VQQLEwtEZXZlbG9wbWVudDEYMBYGA1UEAxMPU3ViIENBIDEgUm9vdCA4MB4XDTA5
MTEyMDE1NDIxMloXDTM0MTExNDE1NDIxMlowbzELMAkGA1UEBhMCREUxEDAOBgNV
BAgTB0hhbWJ1cmcxFzAVBgNVBAoTDk9wZW5PZmZpY2Uub3JnMRQwEgYDVQQLEwtE
ZXZlbG9wbWVudDEfMB0GA1UEAxMWVXNlciAxIFN1YiBDQSAxIFJvb3QgODCBnzAN
BgkqhkiG9w0BAQEFAAOBjQAwgYkCgYEAtqo07DHlmqr+kDEf5YOQy5qeFc27NRv8
PIvZPSne9Ac/TAabT9shokuHi/20YTHeNGwUEPmneuAK6b+zg6M1RPStw9Bg6HGO
bcBwmhaFZXqCaHxn7lcxa+j98j9fx+xO2+eKmNYVRRMUA7xOigNIwuSqxTLPgIJF
FotjN0vVepcCAwEAAaOBgzCBgDAxBggrBgEFBQcBAQQlMCMwIQYIKwYBBQUHMAGG
FWh0dHA6Ly9sb2NhbGhvc3Q6ODg4OTALBgNVHQ8EBAMCBeAwHQYDVR0OBBYEFE4L
KAW1B493HqY3y8zwywmkjEoeMB8GA1UdIwQYMBaAFO+9yI54efl2SxFZtsMyEAfA
vOOKMA0GCSqGSIb3DQEBBQUAA4GBAD73xZRYLxjJESkpKDO752xwfPjHYErlN/K7
eNlSHsKj3bF/2uGKi5x+1u7s75Q3tbiXJpIBVngVREuVTdlZErCJhuS1fbRzD/EN
qARp5D8qamW5DpoG9xYplE2sZKvpDwY8dP5M4XGYvZ+7wS1HcGo8s3YL/MgF1k6/
M5/dWHSc
-----END CERTIFICATE-----
