Certificate:
    Data:
        Version: 3 (0x2)
        Serial Number: 4096 (0x1000)
        Signature Algorithm: sha1WithRSAEncryption
        Issuer: C=DE, ST=Hamburg, O=OpenOffice.org, OU=Development, CN=Root 8
        Validity
            Not Before: Nov 20 15:33:21 2009 GMT
            Not After : Nov 14 15:33:21 2034 GMT
        Subject: C=DE, ST=Hamburg, O=OpenOffice.org, OU=Development, CN=Sub CA 1 Root 8
        Subject Public Key Info:
            Public Key Algorithm: rsaEncryption
            RSA Public Key: (1024 bit)
                Modulus (1024 bit):
                    00:96:79:01:9f:4f:68:c1:09:0d:44:3a:82:e4:eb:
                    ad:70:7a:cf:b9:71:e5:fb:e0:c8:0c:21:79:3e:cb:
                    78:91:7f:4a:a0:de:3e:37:0f:a1:6b:73:10:12:9b:
                    08:c4:96:dc:cb:a8:5b:87:9b:75:24:e4:00:5e:4a:
                    6f:4c:13:79:1f:57:13:8c:3e:1b:38:31:e1:77:74:
                    52:f9:94:47:36:57:33:bd:de:08:11:a3:01:e1:53:
                    1c:bd:7b:39:9c:5e:96:5c:a9:61:6c:cc:2b:90:8d:
                    5a:3c:9e:f4:4b:6e:e5:97:64:86:f3:8e:e8:72:20:
                    5d:0d:50:bf:e9:cf:be:d4:13
                Exponent: 65537 (0x10001)
        X509v3 extensions:
            X509v3 Subject Key Identifier: 
                EF:BD:C8:8E:78:79:F9:76:4B:11:59:B6:C3:32:10:07:C0:BC:E3:8A
            X509v3 Authority Key Identifier: 
                keyid:D6:66:76:C9:05:FF:A9:50:88:96:60:DD:FB:C7:30:18:72:67:41:19
                DirName:/C=DE/ST=Hamburg/O=OpenOffice.org/OU=Development/CN=Root 8
                serial:B2:47:DE:6A:2A:4C:83:19

            Authority Information Access: 
                OCSP - URI:http://localhost:8888

            X509v3 Basic Constraints: critical
                CA:TRUE
    Signature Algorithm: sha1WithRSAEncryption
        4c:95:44:3b:57:08:ec:01:ec:f9:3e:7c:89:1c:30:b1:4e:26:
        32:b6:57:fa:25:bc:ed:eb:d4:a2:1c:67:ee:b9:8b:d0:4c:57:
        8a:0e:db:a0:9d:92:e7:de:c6:73:01:e7:de:61:1b:b5:0e:d0:
        c5:c1:a7:a6:ab:e0:c6:0b:51:dd:e5:a2:32:1f:c6:52:ea:d3:
        03:68:3a:f5:92:bd:8b:b8:03:bb:50:70:63:cc:ec:ed:3c:11:
        76:ca:ac:72:47:ad:99:6b:8e:07:9e:38:f2:63:e1:ba:d4:df:
        a9:73:54:1d:74:89:94:01:2e:68:dd:97:e7:53:f9:cf:b6:7d:
        fc:87
-----BEGIN CERTIFICATE-----
MIIDOTCCAqKgAwIBAgICEAAwDQYJKoZIhvcNAQEFBQAwXzELMAkGA1UEBhMCREUx
EDAOBgNVBAgTB0hhbWJ1cmcxFzAVBgNVBAoTDk9wZW5PZmZpY2Uub3JnMRQwEgYD
VQQLEwtEZXZlbG9wbWVudDEPMA0GA1UEAxMGUm9vdCA4MB4XDTA5MTEyMDE1MzMy
MVoXDTM0MTExNDE1MzMyMVowaDELMAkGA1UEBhMCREUxEDAOBgNVBAgTB0hhbWJ1
cmcxFzAVBgNVBAoTDk9wZW5PZmZpY2Uub3JnMRQwEgYDVQQLEwtEZXZlbG9wbWVu
dDEYMBYGA1UEAxMPU3ViIENBIDEgUm9vdCA4MIGfMA0GCSqGSIb3DQEBAQUAA4GN
ADCBiQKBgQCWeQGfT2jBCQ1EOoLk661wes+5ceX74MgMIXk+y3iRf0qg3j43D6Fr
cxASmwjEltzLqFuHm3Uk5ABeSm9ME3kfVxOMPhs4MeF3dFL5lEc2VzO93ggRowHh
Uxy9ezmcXpZcqWFszCuQjVo8nvRLbuWXZIbzjuhyIF0NUL/pz77UEwIDAQABo4H6
MIH3MB0GA1UdDgQWBBTvvciOeHn5dksRWbbDMhAHwLzjijCBkQYDVR0jBIGJMIGG
gBTWZnbJBf+pUIiWYN37xzAYcmdBGaFjpGEwXzELMAkGA1UEBhMCREUxEDAOBgNV
BAgTB0hhbWJ1cmcxFzAVBgNVBAoTDk9wZW5PZmZpY2Uub3JnMRQwEgYDVQQLEwtE
ZXZlbG9wbWVudDEPMA0GA1UEAxMGUm9vdCA4ggkAskfeaipMgxkwMQYIKwYBBQUH
AQEEJTAjMCEGCCsGAQUFBzABhhVodHRwOi8vbG9jYWxob3N0Ojg4ODgwDwYDVR0T
AQH/BAUwAwEB/zANBgkqhkiG9w0BAQUFAAOBgQBMlUQ7VwjsAez5PnyJHDCxTiYy
tlf6Jbzt69SiHGfuuYvQTFeKDtugnZLn3sZzAefeYRu1DtDFwaemq+DGC1Hd5aIy
H8ZS6tMDaDr1kr2LuAO7UHBjzOztPBF2yqxyR62Za44HnjjyY+G61N+pc1QddImU
AS5o3ZfnU/nPtn38hw==
-----END CERTIFICATE-----
