UDK_3_0_0 {
    global:
    _ZTI*; _ZTS*; # weak RTTI symbols for C++ exceptions

_ZN3com3sun4star3uno19WeakReferenceHelperC1ERKNS2_9ReferenceINS2_10XInterfaceEEE;
_ZN3com3sun4star3uno19WeakReferenceHelperC1ERKS3_;
_ZN3com3sun4star3uno19WeakReferenceHelperC2ERKNS2_9ReferenceINS2_10XInterfaceEEE;
_ZN3com3sun4star3uno19WeakReferenceHelperC2ERKS3_;
_ZN3com3sun4star3uno19WeakReferenceHelperaSERKS3_;
_ZN3com3sun4star3uno19WeakReferenceHelperD1Ev;
_ZN3com3sun4star3uno19WeakReferenceHelperD2Ev;
_ZN4cppu11OWeakObject12queryAdapterEv;
_ZN4cppu11OWeakObject14queryInterfaceERKN3com3sun4star3uno4TypeE;
_ZN4cppu11OWeakObject7acquireEv;
_ZN4cppu11OWeakObject7releaseEv;
_ZN4cppu11OWeakObjectD0Ev;
_ZN4cppu11OWeakObjectD1Ev;
_ZN4cppu11OWeakObjectD2Ev;
_ZN4cppu13ClassDataBaseC1E?;
_ZN4cppu13ClassDataBaseC1Ev;
_ZN4cppu13ClassDataBaseC2E?;
_ZN4cppu13ClassDataBaseC2Ev;
_ZN4cppu13ClassDataBaseD1Ev;
_ZN4cppu13ClassDataBaseD2Ev;
_ZN4cppu14OWeakAggObject12setDelegatorERKN3com3sun4star3uno9ReferenceINS4_10XInterfaceEEE;
_ZN4cppu14OWeakAggObject14queryInterfaceERKN3com3sun4star3uno4TypeE;
_ZN4cppu14OWeakAggObject16queryAggregationERKN3com3sun4star3uno4TypeE;
_ZN4cppu14OWeakAggObject7acquireEv;
_ZN4cppu14OWeakAggObject7releaseEv;
_ZN4cppu14OWeakAggObjectD0Ev;
_ZN4cppu14OWeakAggObjectD1Ev;
_ZN4cppu14OWeakAggObjectD2Ev;
_ZN4cppu14throwExceptionERKN3com3sun4star3uno3AnyE;
_ZN4cppu15OTypeCollectionC1ERKN3com3sun4star3uno4TypeERKNS4_8SequenceIS5_EE;
_ZN4cppu15OTypeCollectionC1ERKN3com3sun4star3uno4TypeES7_RKNS4_8SequenceIS5_EE;
_ZN4cppu15OTypeCollectionC1ERKN3com3sun4star3uno4TypeES7_S7_RKNS4_8SequenceIS5_EE;
_ZN4cppu15OTypeCollectionC1ERKN3com3sun4star3uno4TypeES7_S7_S7_RKNS4_8SequenceIS5_EE;
_ZN4cppu15OTypeCollectionC1ERKN3com3sun4star3uno4TypeES7_S7_S7_S7_RKNS4_8SequenceIS5_EE;
_ZN4cppu15OTypeCollectionC1ERKN3com3sun4star3uno4TypeES7_S7_S7_S7_S7_RKNS4_8SequenceIS5_EE;
_ZN4cppu15OTypeCollectionC1ERKN3com3sun4star3uno4TypeES7_S7_S7_S7_S7_S7_RKNS4_8SequenceIS5_EE;
_ZN4cppu15OTypeCollectionC1ERKN3com3sun4star3uno4TypeES7_S7_S7_S7_S7_S7_S7_RKNS4_8SequenceIS5_EE;
_ZN4cppu15OTypeCollectionC1ERKN3com3sun4star3uno4TypeES7_S7_S7_S7_S7_S7_S7_S7_RKNS4_8SequenceIS5_EE;
_ZN4cppu15OTypeCollectionC1ERKN3com3sun4star3uno4TypeES7_S7_S7_S7_S7_S7_S7_S7_S7_RKNS4_8SequenceIS5_EE;
_ZN4cppu15OTypeCollectionC1ERKN3com3sun4star3uno4TypeES7_S7_S7_S7_S7_S7_S7_S7_S7_S7_RKNS4_8SequenceIS5_EE;
_ZN4cppu15OTypeCollectionC1ERKN3com3sun4star3uno4TypeES7_S7_S7_S7_S7_S7_S7_S7_S7_S7_S7_RKNS4_8SequenceIS5_EE;
_ZN4cppu15OTypeCollectionC2ERKN3com3sun4star3uno4TypeERKNS4_8SequenceIS5_EE;
_ZN4cppu15OTypeCollectionC2ERKN3com3sun4star3uno4TypeES7_RKNS4_8SequenceIS5_EE;
_ZN4cppu15OTypeCollectionC2ERKN3com3sun4star3uno4TypeES7_S7_RKNS4_8SequenceIS5_EE;
_ZN4cppu15OTypeCollectionC2ERKN3com3sun4star3uno4TypeES7_S7_S7_RKNS4_8SequenceIS5_EE;
_ZN4cppu15OTypeCollectionC2ERKN3com3sun4star3uno4TypeES7_S7_S7_S7_RKNS4_8SequenceIS5_EE;
_ZN4cppu15OTypeCollectionC2ERKN3com3sun4star3uno4TypeES7_S7_S7_S7_S7_RKNS4_8SequenceIS5_EE;
_ZN4cppu15OTypeCollectionC2ERKN3com3sun4star3uno4TypeES7_S7_S7_S7_S7_S7_RKNS4_8SequenceIS5_EE;
_ZN4cppu15OTypeCollectionC2ERKN3com3sun4star3uno4TypeES7_S7_S7_S7_S7_S7_S7_RKNS4_8SequenceIS5_EE;
_ZN4cppu15OTypeCollectionC2ERKN3com3sun4star3uno4TypeES7_S7_S7_S7_S7_S7_S7_S7_RKNS4_8SequenceIS5_EE;
_ZN4cppu15OTypeCollectionC2ERKN3com3sun4star3uno4TypeES7_S7_S7_S7_S7_S7_S7_S7_S7_RKNS4_8SequenceIS5_EE;
_ZN4cppu15OTypeCollectionC2ERKN3com3sun4star3uno4TypeES7_S7_S7_S7_S7_S7_S7_S7_S7_S7_RKNS4_8SequenceIS5_EE;
_ZN4cppu15OTypeCollectionC2ERKN3com3sun4star3uno4TypeES7_S7_S7_S7_S7_S7_S7_S7_S7_S7_S7_RKNS4_8SequenceIS5_EE;
_ZN4cppu16ImplHelper_queryERKN3com3sun4star3uno4TypeEPNS_10class_dataEPv;
_ZN4cppu16OComponentHelper14queryInterfaceERKN3com3sun4star3uno4TypeE;
_ZN4cppu16OComponentHelper16addEventListenerERKN3com3sun4star3uno9ReferenceINS3_4lang14XEventListenerEEE;
_ZN4cppu16OComponentHelper16queryAggregationERKN3com3sun4star3uno4TypeE;
_ZN4cppu16OComponentHelper19removeEventListenerERKN3com3sun4star3uno9ReferenceINS3_4lang14XEventListenerEEE;
_ZN4cppu16OComponentHelper7acquireEv;
_ZN4cppu16OComponentHelper7disposeEv;
_ZN4cppu16OComponentHelper7releaseEv;
_ZN4cppu16OComponentHelper8getTypesEv;
_ZN4cppu16OComponentHelper9disposingEv;
_ZN4cppu16OComponentHelperC1ERN3osl5MutexE;
_ZN4cppu16OComponentHelperC2ERN3osl5MutexE;
_ZN4cppu16OComponentHelperD0Ev;
_ZN4cppu16OComponentHelperD1Ev;
_ZN4cppu16OComponentHelperD2Ev;
_ZN4cppu17OImplementationIdD1Ev;
_ZN4cppu17OImplementationIdD2Ev;
_ZN4cppu18OPropertySetHelper14queryInterfaceERKN3com3sun4star3uno4TypeE;
_ZN4cppu18OPropertySetHelper16getPropertyValueERKN3rtl8OUStringE;
_ZN4cppu18OPropertySetHelper16setPropertyValueERKN3rtl8OUStringERKN3com3sun4star3uno3AnyE;
_ZN4cppu18OPropertySetHelper17getPropertyValuesERKN3com3sun4star3uno8SequenceIN3rtl8OUStringEEE;
_ZN4cppu18OPropertySetHelper17setPropertyValuesERKN3com3sun4star3uno8SequenceIN3rtl8OUStringEEERKNS5_INS4_3AnyEEE;
_ZN4cppu18OPropertySetHelper20getFastPropertyValueE?;
_ZN4cppu18OPropertySetHelper20setFastPropertyValueE?RKN3com3sun4star3uno3AnyE;
_ZN4cppu18OPropertySetHelper21createPropertySetInfoERNS_20IPropertyArrayHelperE;
_ZN4cppu18OPropertySetHelper21setFastPropertyValuesE?P?PKN3com3sun4star3uno3AnyE?;
_ZN4cppu18OPropertySetHelper25addPropertyChangeListenerERKN3rtl8OUStringERKN3com3sun4star3uno9ReferenceINS7_5beans23XPropertyChangeListenerEEE;
_ZN4cppu18OPropertySetHelper25addVetoableChangeListenerERKN3rtl8OUStringERKN3com3sun4star3uno9ReferenceINS7_5beans23XVetoableChangeListenerEEE;
_ZN4cppu18OPropertySetHelper25firePropertiesChangeEventERKN3com3sun4star3uno8SequenceIN3rtl8OUStringEEERKNS4_9ReferenceINS3_5beans25XPropertiesChangeListenerEEE;
_ZN4cppu18OPropertySetHelper27addPropertiesChangeListenerERKN3com3sun4star3uno8SequenceIN3rtl8OUStringEEERKNS4_9ReferenceINS3_5beans25XPropertiesChangeListenerEEE;
_ZN4cppu18OPropertySetHelper28removePropertyChangeListenerERKN3rtl8OUStringERKN3com3sun4star3uno9ReferenceINS7_5beans23XPropertyChangeListenerEEE;
_ZN4cppu18OPropertySetHelper28removeVetoableChangeListenerERKN3rtl8OUStringERKN3com3sun4star3uno9ReferenceINS7_5beans23XVetoableChangeListenerEEE;
_ZN4cppu18OPropertySetHelper30removePropertiesChangeListenerERKN3com3sun4star3uno9ReferenceINS3_5beans25XPropertiesChangeListenerEEE;
_ZN4cppu18OPropertySetHelper4fireEP?PKN3com3sun4star3uno3AnyES8_?h;
_ZN4cppu18OPropertySetHelper9disposingEv;
_ZN4cppu18OPropertySetHelperC1ERNS_19OBroadcastHelperVarINS_34OMultiTypeInterfaceContainerHelperEN3com3sun4star3uno4TypeEEE;
_ZN4cppu18OPropertySetHelperC2ERNS_19OBroadcastHelperVarINS_34OMultiTypeInterfaceContainerHelperEN3com3sun4star3uno4TypeEEE;
_ZN4cppu18OPropertySetHelperD1Ev;
_ZN4cppu18OPropertySetHelperD2Ev;
_ZN4cppu18bootstrapInitialSFERKN3rtl8OUStringE;
_ZN4cppu18createFactoryProxyERKN3com3sun4star3uno9ReferenceINS2_4lang20XMultiServiceFactoryEEERKNS4_INS5_21XSingleServiceFactoryEEE;
_ZN4cppu19ImplHelper_getTypesEPNS_10class_dataE;
_ZN4cppu19createSingleFactoryERKN3com3sun4star3uno9ReferenceINS2_4lang20XMultiServiceFactoryEEERKN3rtl8OUStringEPFNS4_INS3_10XInterfaceEEES9_ERKNS3_8SequenceISB_EEP16_rtl_ModuleCount;
_ZN4cppu20IPropertyArrayHelperD0Ev;
_ZN4cppu20IPropertyArrayHelperD1Ev;
_ZN4cppu20IPropertyArrayHelperD2Ev;
_ZN4cppu20OPropertyArrayHelper11fillHandlesEP?RKN3com3sun4star3uno8SequenceIN3rtl8OUStringEEE;
_ZN4cppu20OPropertyArrayHelper13getPropertiesEv;
_ZN4cppu20OPropertyArrayHelper15getHandleByNameERKN3rtl8OUStringE;
_ZN4cppu20OPropertyArrayHelper17getPropertyByNameERKN3rtl8OUStringE;
_ZN4cppu20OPropertyArrayHelper17hasPropertyByNameERKN3rtl8OUStringE;
_ZN4cppu20OPropertyArrayHelper27fillPropertyMembersByHandleEPN3rtl8OUStringEPs?;
_ZN4cppu20OPropertyArrayHelper4initEh;
_ZN4cppu20OPropertyArrayHelperC1EPN3com3sun4star5beans8PropertyE?h;
_ZN4cppu20OPropertyArrayHelperC1ERKN3com3sun4star3uno8SequenceINS3_5beans8PropertyEEEh;
_ZN4cppu20OPropertyArrayHelperC2EPN3com3sun4star5beans8PropertyE?h;
_ZN4cppu20OPropertyArrayHelperC2ERKN3com3sun4star3uno8SequenceINS3_5beans8PropertyEEEh;
_ZN4cppu20WeakImplHelper_queryERKN3com3sun4star3uno4TypeEPNS_10class_dataEPvPNS_11OWeakObjectE;
_ZN4cppu20createNestedRegistryERKN3rtl8OUStringE;
_ZN4cppu20createSimpleRegistryERKN3rtl8OUStringE;
_ZN4cppu22ImplInhHelper_getTypesEPNS_10class_dataERKN3com3sun4star3uno8SequenceINS5_4TypeEEE;
_ZN4cppu22createComponentContextEPKNS_17ContextEntry_InitE?RKN3com3sun4star3uno9ReferenceINS6_17XComponentContextEEE;
_ZN4cppu22getImplHelperInitMutexEv;
_ZN4cppu23WeakImplHelper_getTypesEPNS_10class_dataE;
_ZN4cppu24OInterfaceIteratorHelper4nextEv;
_ZN4cppu24OInterfaceIteratorHelper6removeEv;
_ZN4cppu24OInterfaceIteratorHelperC1ERNS_25OInterfaceContainerHelperE;
_ZN4cppu24OInterfaceIteratorHelperC2ERNS_25OInterfaceContainerHelperE;
_ZN4cppu24OInterfaceIteratorHelperD1Ev;
_ZN4cppu24OInterfaceIteratorHelperD2Ev;
_ZN4cppu24createOneInstanceFactoryERKN3com3sun4star3uno9ReferenceINS2_4lang20XMultiServiceFactoryEEERKN3rtl8OUStringEPFNS4_INS3_10XInterfaceEEES9_ERKNS3_8SequenceISB_EEP16_rtl_ModuleCount;
_ZN4cppu25OInterfaceContainerHelper12addInterfaceERKN3com3sun4star3uno9ReferenceINS4_10XInterfaceEEE;
_ZN4cppu25OInterfaceContainerHelper15disposeAndClearERKN3com3sun4star4lang11EventObjectE;
_ZN4cppu25OInterfaceContainerHelper15removeInterfaceERKN3com3sun4star3uno9ReferenceINS4_10XInterfaceEEE;
_ZN4cppu25OInterfaceContainerHelper17copyAndResetInUseEv;
_ZN4cppu25OInterfaceContainerHelper5clearEv;
_ZN4cppu25OInterfaceContainerHelperC1ERN3osl5MutexE;
_ZN4cppu25OInterfaceContainerHelperC2ERN3osl5MutexE;
_ZN4cppu25OInterfaceContainerHelperD1Ev;
_ZN4cppu25OInterfaceContainerHelperD2Ev;
_ZN4cppu25component_writeInfoHelperEPvS0_PKNS_19ImplementationEntryE;
_ZN4cppu26WeakAggImplHelper_getTypesEPNS_10class_dataE;
_ZN4cppu26WeakAggImplHelper_queryAggERKN3com3sun4star3uno4TypeEPNS_10class_dataEPvPNS_14OWeakAggObjectE;
_ZN4cppu26component_getFactoryHelperEPKcPvS2_PKNS_19ImplementationEntryE;
_ZN4cppu27WeakComponentImplHelperBase14queryInterfaceERKN3com3sun4star3uno4TypeE;
_ZN4cppu27WeakComponentImplHelperBase16addEventListenerERKN3com3sun4star3uno9ReferenceINS3_4lang14XEventListenerEEE;
_ZN4cppu27WeakComponentImplHelperBase19removeEventListenerERKN3com3sun4star3uno9ReferenceINS3_4lang14XEventListenerEEE;
_ZN4cppu27WeakComponentImplHelperBase7acquireEv;
_ZN4cppu27WeakComponentImplHelperBase7disposeEv;
_ZN4cppu27WeakComponentImplHelperBase7releaseEv;
_ZN4cppu27WeakComponentImplHelperBase9disposingEv;
_ZN4cppu27WeakComponentImplHelperBaseC1ERN3osl5MutexE;
_ZN4cppu27WeakComponentImplHelperBaseC2ERN3osl5MutexE;
_ZN4cppu27WeakComponentImplHelperBaseD0Ev;
_ZN4cppu27WeakComponentImplHelperBaseD1Ev;
_ZN4cppu27WeakComponentImplHelperBaseD2Ev;
_ZN4cppu27createSingleRegistryFactoryERKN3com3sun4star3uno9ReferenceINS2_4lang20XMultiServiceFactoryEEERKN3rtl8OUStringERKNS4_INS2_8registry12XRegistryKeyEEE;
_ZN4cppu27writeSharedLibComponentInfoERKN3rtl8OUStringES3_RKN3com3sun4star3uno9ReferenceINS6_4lang20XMultiServiceFactoryEEERKNS8_INS6_8registry12XRegistryKeyEEE;
_ZN4cppu28ImplHelper_queryNoXInterfaceERKN3com3sun4star3uno4TypeEPNS_10class_dataEPv;
_ZN4cppu28createRegistryServiceFactoryERKN3rtl8OUStringES3_hS3_;
_ZN4cppu28createSingleComponentFactoryEPFN3com3sun4star3uno9ReferenceINS3_10XInterfaceEEERKNS4_INS3_17XComponentContextEEEERKN3rtl8OUStringERKNS3_8SequenceISE_EEP16_rtl_ModuleCount;
_ZN4cppu29WeakComponentImplHelper_queryERKN3com3sun4star3uno4TypeEPNS_10class_dataEPvPNS_27WeakComponentImplHelperBaseE;
_ZN4cppu29installTypeDescriptionManagerERKN3com3sun4star3uno9ReferenceINS2_9container23XHierarchicalNameAccessEEE;
_ZN4cppu28invokeStaticComponentFactoryEPFvvERKN3rtl8OUStringERKN3com3sun4star3uno9ReferenceINS8_4lang20XMultiServiceFactoryEEERKNSA_INS8_8registry12XRegistryKeyEEES5_;
_ZN4cppu29loadSharedLibComponentFactoryERKN3rtl8OUStringES3_S3_RKN3com3sun4star3uno9ReferenceINS6_4lang20XMultiServiceFactoryEEERKNS8_INS6_8registry12XRegistryKeyEEE;
_ZN4cppu29loadSharedLibComponentFactoryERKN3rtl8OUStringES3_S3_RKN3com3sun4star3uno9ReferenceINS6_4lang20XMultiServiceFactoryEEERKNS8_INS6_8registry12XRegistryKeyEEES3_;
_ZN4cppu30ImplHelper_getImplementationIdEPNS_10class_dataE;
_ZN4cppu30WeakAggComponentImplHelperBase14queryInterfaceERKN3com3sun4star3uno4TypeE;
_ZN4cppu30WeakAggComponentImplHelperBase16addEventListenerERKN3com3sun4star3uno9ReferenceINS3_4lang14XEventListenerEEE;
_ZN4cppu30WeakAggComponentImplHelperBase16queryAggregationERKN3com3sun4star3uno4TypeE;
_ZN4cppu30WeakAggComponentImplHelperBase19removeEventListenerERKN3com3sun4star3uno9ReferenceINS3_4lang14XEventListenerEEE;
_ZN4cppu30WeakAggComponentImplHelperBase7acquireEv;
_ZN4cppu30WeakAggComponentImplHelperBase7disposeEv;
_ZN4cppu30WeakAggComponentImplHelperBase7releaseEv;
_ZN4cppu30WeakAggComponentImplHelperBase9disposingEv;
_ZN4cppu30WeakAggComponentImplHelperBaseC1ERN3osl5MutexE;
_ZN4cppu30WeakAggComponentImplHelperBaseC2ERN3osl5MutexE;
_ZN4cppu30WeakAggComponentImplHelperBaseD0Ev;
_ZN4cppu30WeakAggComponentImplHelperBaseD1Ev;
_ZN4cppu30WeakAggComponentImplHelperBaseD2Ev;
_ZN4cppu31createStandardClassWithSequenceERKN3com3sun4star3uno9ReferenceINS2_4lang20XMultiServiceFactoryEEERKN3rtl8OUStringERKNS4_INS2_10reflection9XIdlClassEEERKNS3_8SequenceISB_EE;
_ZN4cppu32WeakComponentImplHelper_getTypesEPNS_10class_dataE;
_ZN4cppu32createOneInstanceRegistryFactoryERKN3com3sun4star3uno9ReferenceINS2_4lang20XMultiServiceFactoryEEERKN3rtl8OUStringERKNS4_INS2_8registry12XRegistryKeyEEE;
_ZN4cppu33bootstrap_InitialComponentContextERKN3com3sun4star3uno9ReferenceINS2_8registry15XSimpleRegistryEEERKN3rtl8OUStringE;
_ZN4cppu34OMultiTypeInterfaceContainerHelper12addInterfaceERKN3com3sun4star3uno4TypeERKNS4_9ReferenceINS4_10XInterfaceEEE;
_ZN4cppu34OMultiTypeInterfaceContainerHelper15disposeAndClearERKN3com3sun4star4lang11EventObjectE;
_ZN4cppu34OMultiTypeInterfaceContainerHelper15removeInterfaceERKN3com3sun4star3uno4TypeERKNS4_9ReferenceINS4_10XInterfaceEEE;
_ZN4cppu34OMultiTypeInterfaceContainerHelper5clearEv;
_ZN4cppu34OMultiTypeInterfaceContainerHelperC1ERN3osl5MutexE;
_ZN4cppu34OMultiTypeInterfaceContainerHelperC2ERN3osl5MutexE;
_ZN4cppu34OMultiTypeInterfaceContainerHelperD1Ev;
_ZN4cppu34OMultiTypeInterfaceContainerHelperD2Ev;
_ZN4cppu35WeakAggComponentImplHelper_getTypesEPNS_10class_dataE;
_ZN4cppu35WeakAggComponentImplHelper_queryAggERKN3com3sun4star3uno4TypeEPNS_10class_dataEPvPNS_30WeakAggComponentImplHelperBaseE;
_ZN4cppu39OMultiTypeInterfaceContainerHelperInt3212addInterfaceERK?RKN3com3sun4star3uno9ReferenceINS6_10XInterfaceEEE;
_ZN4cppu39OMultiTypeInterfaceContainerHelperInt3215disposeAndClearERKN3com3sun4star4lang11EventObjectE;
_ZN4cppu39OMultiTypeInterfaceContainerHelperInt3215removeInterfaceERK?RKN3com3sun4star3uno9ReferenceINS6_10XInterfaceEEE;
_ZN4cppu39OMultiTypeInterfaceContainerHelperInt325clearEv;
_ZN4cppu39OMultiTypeInterfaceContainerHelperInt32C1ERN3osl5MutexE;
_ZN4cppu39OMultiTypeInterfaceContainerHelperInt32C2ERN3osl5MutexE;
_ZN4cppu39OMultiTypeInterfaceContainerHelperInt32D1Ev;
_ZN4cppu39OMultiTypeInterfaceContainerHelperInt32D2Ev;
_ZN4cppu40defaultBootstrap_InitialComponentContextERKN3rtl8OUStringE;
_ZN4cppu40defaultBootstrap_InitialComponentContextEv;
_ZN4cppu9ClassData15writeTypeOffsetERKN3com3sun4star3uno4TypeE?;
_ZN4cppu9ClassData16initTypeProviderEv;
_ZN4cppu9ClassData19getImplementationIdEv;
_ZN4cppu9ClassData5queryERKN3com3sun4star3uno4TypeEPNS3_4lang13XTypeProviderE;
_ZN4cppu9ClassData8getTypesEv;
_ZNK3com3sun4star3uno19WeakReferenceHelper3getEv;
_ZNK4cppu17OImplementationId19getImplementationIdEv;
_ZNK4cppu20OPropertyArrayHelper8getCountEv;
_ZNK4cppu25OInterfaceContainerHelper11getElementsEv;
_ZNK4cppu25OInterfaceContainerHelper9getLengthEv;
_ZNK4cppu34OMultiTypeInterfaceContainerHelper12getContainerERKN3com3sun4star3uno4TypeE;
_ZNK4cppu34OMultiTypeInterfaceContainerHelper17getContainedTypesEv;
_ZNK4cppu39OMultiTypeInterfaceContainerHelperInt3212getContainerERK?;
_ZNK4cppu39OMultiTypeInterfaceContainerHelperInt3217getContainedTypesEv;
_ZTVN4cppu11OWeakObjectE;
_ZTVN4cppu14OWeakAggObjectE;
_ZTVN4cppu16OComponentHelperE;
_ZTVN4cppu18OPropertySetHelperE;
_ZTVN4cppu20IPropertyArrayHelperE;
_ZTVN4cppu20OPropertyArrayHelperE;
_ZTVN4cppu27WeakComponentImplHelperBaseE;
_ZTVN4cppu30WeakAggComponentImplHelperBaseE;
_ZN4cppu20OPropertyArrayHelperD0Ev;
_ZN4cppu20OPropertyArrayHelperD1Ev;
_ZThn*_N4cppu14OWeakAggObject12setDelegatorERKN3com3sun4star3uno9ReferenceINS4_10XInterfaceEEE;
_ZThn*_N4cppu14OWeakAggObject14queryInterfaceERKN3com3sun4star3uno4TypeE;
_ZThn*_N4cppu14OWeakAggObject16queryAggregationERKN3com3sun4star3uno4TypeE;
_ZThn*_N4cppu14OWeakAggObject7acquireEv;
_ZThn*_N4cppu14OWeakAggObject7releaseEv;
_ZThn*_N4cppu16OComponentHelper14queryInterfaceERKN3com3sun4star3uno4TypeE;
_ZThn*_N4cppu16OComponentHelper16queryAggregationERKN3com3sun4star3uno4TypeE;
_ZThn*_N4cppu16OComponentHelper7acquireEv;
_ZThn*_N4cppu16OComponentHelper7releaseEv;
_ZThn*_N4cppu27WeakComponentImplHelperBase14queryInterfaceERKN3com3sun4star3uno4TypeE;
_ZThn*_N4cppu27WeakComponentImplHelperBase16addEventListenerERKN3com3sun4star3uno9ReferenceINS3_4lang14XEventListenerEEE;
_ZThn*_N4cppu27WeakComponentImplHelperBase19removeEventListenerERKN3com3sun4star3uno9ReferenceINS3_4lang14XEventListenerEEE;
_ZThn*_N4cppu27WeakComponentImplHelperBase7acquireEv;
_ZThn*_N4cppu27WeakComponentImplHelperBase7disposeEv;
_ZThn*_N4cppu27WeakComponentImplHelperBase7releaseEv;
_ZThn*_N4cppu30WeakAggComponentImplHelperBase14queryInterfaceERKN3com3sun4star3uno4TypeE;
_ZThn*_N4cppu30WeakAggComponentImplHelperBase16queryAggregationERKN3com3sun4star3uno4TypeE;
_ZThn*_N4cppu30WeakAggComponentImplHelperBase7acquireEv;
_ZThn*_N4cppu30WeakAggComponentImplHelperBase7releaseEv;
_ZThn*_N4cppu16OComponentHelper14queryInterfaceERKN3com3sun4star3uno4TypeE;
_ZThn*_N4cppu16OComponentHelper7acquireEv;
_ZThn*_N4cppu16OComponentHelper7releaseEv;
_ZThn*_N4cppu16OComponentHelper8getTypesEv;
_ZThn*_N4cppu30WeakAggComponentImplHelperBase14queryInterfaceERKN3com3sun4star3uno4TypeE;
_ZThn*_N4cppu30WeakAggComponentImplHelperBase16addEventListenerERKN3com3sun4star3uno9ReferenceINS3_4lang14XEventListenerEEE;
_ZThn*_N4cppu30WeakAggComponentImplHelperBase19removeEventListenerERKN3com3sun4star3uno9ReferenceINS3_4lang14XEventListenerEEE;
_ZThn*_N4cppu30WeakAggComponentImplHelperBase7acquireEv;
_ZThn*_N4cppu30WeakAggComponentImplHelperBase7disposeEv;
_ZThn*_N4cppu30WeakAggComponentImplHelperBase7releaseEv;
_ZThn*_N4cppu16OComponentHelper14queryInterfaceERKN3com3sun4star3uno4TypeE;
_ZThn*_N4cppu16OComponentHelper16addEventListenerERKN3com3sun4star3uno9ReferenceINS3_4lang14XEventListenerEEE;
_ZThn*_N4cppu16OComponentHelper19removeEventListenerERKN3com3sun4star3uno9ReferenceINS3_4lang14XEventListenerEEE;
_ZThn*_N4cppu16OComponentHelper7acquireEv;
_ZThn*_N4cppu16OComponentHelper7disposeEv;
_ZThn*_N4cppu16OComponentHelper7releaseEv;
_ZThn*_N4cppu18OPropertySetHelper14queryInterfaceERKN3com3sun4star3uno4TypeE;
_ZThn*_N4cppu18OPropertySetHelper20getFastPropertyValueE?;
_ZThn*_N4cppu18OPropertySetHelper20setFastPropertyValueE?RKN3com3sun4star3uno3AnyE;
_ZThn*_N4cppu18OPropertySetHelper16getPropertyValueERKN3rtl8OUStringE;
_ZThn*_N4cppu18OPropertySetHelper16setPropertyValueERKN3rtl8OUStringERKN3com3sun4star3uno3AnyE;
_ZThn*_N4cppu18OPropertySetHelper25addPropertyChangeListenerERKN3rtl8OUStringERKN3com3sun4star3uno9ReferenceINS7_5beans23XPropertyChangeListenerEEE;
_ZThn*_N4cppu18OPropertySetHelper25addVetoableChangeListenerERKN3rtl8OUStringERKN3com3sun4star3uno9ReferenceINS7_5beans23XVetoableChangeListenerEEE;
_ZThn*_N4cppu18OPropertySetHelper28removePropertyChangeListenerERKN3rtl8OUStringERKN3com3sun4star3uno9ReferenceINS7_5beans23XPropertyChangeListenerEEE;
_ZThn*_N4cppu18OPropertySetHelper28removeVetoableChangeListenerERKN3rtl8OUStringERKN3com3sun4star3uno9ReferenceINS7_5beans23XVetoableChangeListenerEEE;

_ZN4cppu13AccessControl19checkFilePermissionERKN3rtl8OUStringES4_;
_ZN4cppu13AccessControl21checkSocketPermissionERKN3rtl8OUStringES4_;
_ZN4cppu13AccessControl22checkRuntimePermissionERKN3rtl8OUStringE;
_ZN4cppu13AccessControlC1ERKN3com3sun4star3uno9ReferenceINS3_8security17XAccessControllerEEE;
_ZN4cppu13AccessControlC2ERKN3com3sun4star3uno9ReferenceINS3_8security17XAccessControllerEEE;
_ZN4cppu13AccessControlC1ERKN3com3sun4star3uno9ReferenceINS4_17XComponentContextEEE;
_ZN4cppu13AccessControlC2ERKN3com3sun4star3uno9ReferenceINS4_17XComponentContextEEE;
_ZN4cppu13AccessControlC1ERKS0_;
_ZN4cppu13AccessControlC2ERKS0_;

_ZN4cppu16UnoUrlDescriptorC1ERKN3rtl8OUStringE;
_ZN4cppu16UnoUrlDescriptorC1ERKS0_;
_ZN4cppu16UnoUrlDescriptorC2ERKN3rtl8OUStringE;
_ZN4cppu16UnoUrlDescriptorC2ERKS0_;
_ZN4cppu16UnoUrlDescriptorD1Ev;
_ZN4cppu16UnoUrlDescriptorD2Ev;
_ZN4cppu16UnoUrlDescriptoraSERKS0_;
_ZN4cppu6UnoUrlC1ERKN3rtl8OUStringE;
_ZN4cppu6UnoUrlC1ERKS0_;
_ZN4cppu6UnoUrlC2ERKN3rtl8OUStringE;
_ZN4cppu6UnoUrlC2ERKS0_;
_ZN4cppu6UnoUrlD1Ev;
_ZN4cppu6UnoUrlD2Ev;
_ZN4cppu6UnoUrlaSERKS0_;
_ZNK4cppu16UnoUrlDescriptor12getParameterERKN3rtl8OUStringE;
_ZNK4cppu16UnoUrlDescriptor12hasParameterERKN3rtl8OUStringE;
_ZNK4cppu16UnoUrlDescriptor13getDescriptorEv;
_ZNK4cppu16UnoUrlDescriptor7getNameEv;
_ZNK4cppu6UnoUrl11getProtocolEv;
_ZNK4cppu6UnoUrl13getConnectionEv;
_ZNK4cppu6UnoUrl13getObjectNameEv;

    local:
        *;
};

UDK_3.1 {
    global:
        _ZN4cppu18getCaughtExceptionEv;

        _ZN4cppu18OPropertySetHelperC1ERNS_19OBroadcastHelperVarINS_34OMultiTypeInterfaceContainerHelperEN3com3sun4star3uno4TypeEEEb;
        _ZN4cppu18OPropertySetHelperC2ERNS_19OBroadcastHelperVarINS_34OMultiTypeInterfaceContainerHelperEN3com3sun4star3uno4TypeEEEb;

        _ZN4cppu9bootstrapEv;
        _ZN4cppu18BootstrapExceptionC1Ev;
        _ZN4cppu18BootstrapExceptionC2Ev;
        _ZN4cppu18BootstrapExceptionC1ERKN3rtl8OUStringE;
        _ZN4cppu18BootstrapExceptionC2ERKN3rtl8OUStringE;
        _ZN4cppu18BootstrapExceptionC1ERKS0_;
        _ZN4cppu18BootstrapExceptionC2ERKS0_;
        _ZN4cppu18BootstrapExceptionD0Ev;
        _ZN4cppu18BootstrapExceptionD1Ev;
        _ZN4cppu18BootstrapExceptionD2Ev;
        _ZN4cppu18BootstrapExceptionaSERKS0_;
        _ZNK4cppu18BootstrapException10getMessageEv;
        # _ZTIN4cppu18BootstrapExceptionE;
        # _ZTSN4cppu18BootstrapExceptionE;
} UDK_3_0_0;

UDK_3.2 {
    global:
       _ZN4cppu20PropertySetMixinImpl10prepareSetERKN3rtl8OUStringERKN3com3sun4star3uno3AnyESB_PNS0_14BoundListenersE;
        _ZN4cppu20PropertySetMixinImpl14BoundListenersC1Ev;
        _ZN4cppu20PropertySetMixinImpl14BoundListenersC2Ev;
        _ZN4cppu20PropertySetMixinImpl14BoundListenersD1Ev;
        _ZN4cppu20PropertySetMixinImpl14BoundListenersD2Ev;
        _ZN4cppu20PropertySetMixinImpl14queryInterfaceERKN3com3sun4star3uno4TypeE;
        _ZN4cppu20PropertySetMixinImpl16getPropertyValueERKN3rtl8OUStringE;
        _ZN4cppu20PropertySetMixinImpl16setPropertyValueERKN3rtl8OUStringERKN3com3sun4star3uno3AnyE;
        _ZN4cppu20PropertySetMixinImpl17getPropertyValuesEv;
        _ZN4cppu20PropertySetMixinImpl17setPropertyValuesERKN3com3sun4star3uno8SequenceINS3_5beans13PropertyValueEEE;
        _ZN4cppu20PropertySetMixinImpl18getPropertySetInfoEv;
        _ZN4cppu20PropertySetMixinImpl20getFastPropertyValueE?;
        _ZN4cppu20PropertySetMixinImpl20setFastPropertyValueE?RKN3com3sun4star3uno3AnyE;
        _ZN4cppu20PropertySetMixinImpl25addPropertyChangeListenerERKN3rtl8OUStringERKN3com3sun4star3uno9ReferenceINS7_5beans23XPropertyChangeListenerEEE;
        _ZN4cppu20PropertySetMixinImpl25addVetoableChangeListenerERKN3rtl8OUStringERKN3com3sun4star3uno9ReferenceINS7_5beans23XVetoableChangeListenerEEE;
        _ZN4cppu20PropertySetMixinImpl28removePropertyChangeListenerERKN3rtl8OUStringERKN3com3sun4star3uno9ReferenceINS7_5beans23XPropertyChangeListenerEEE;
        _ZN4cppu20PropertySetMixinImpl28removeVetoableChangeListenerERKN3rtl8OUStringERKN3com3sun4star3uno9ReferenceINS7_5beans23XVetoableChangeListenerEEE;
        _ZN4cppu20PropertySetMixinImpl7disposeEv;
        _ZN4cppu20PropertySetMixinImplC1ERKN3com3sun4star3uno9ReferenceINS4_17XComponentContextEEENS0_10ImplementsERKNS4_8SequenceIN3rtl8OUStringEEERKNS4_4TypeE;
        _ZN4cppu20PropertySetMixinImplC2ERKN3com3sun4star3uno9ReferenceINS4_17XComponentContextEEENS0_10ImplementsERKNS4_8SequenceIN3rtl8OUStringEEERKNS4_4TypeE;
        _ZN4cppu20PropertySetMixinImplD1Ev;
        _ZN4cppu20PropertySetMixinImplD2Ev;
        _ZNK4cppu20PropertySetMixinImpl14BoundListeners6notifyEv;
        _ZThn*_N4cppu20PropertySetMixinImpl14queryInterfaceERKN3com3sun4star3uno4TypeE;
        _ZThn*_N4cppu20PropertySetMixinImpl20getFastPropertyValueE?;
        _ZThn*_N4cppu20PropertySetMixinImpl20setFastPropertyValueE?RKN3com3sun4star3uno3AnyE;
        _ZThn*_N4cppu20PropertySetMixinImpl14queryInterfaceERKN3com3sun4star3uno4TypeE;
        _ZThn*_N4cppu20PropertySetMixinImpl17getPropertyValuesEv;
        _ZThn*_N4cppu20PropertySetMixinImpl17setPropertyValuesERKN3com3sun4star3uno8SequenceINS3_5beans13PropertyValueEEE;
} UDK_3.1;

UDK_3.3 { # OOo 2.3
    global:
        _ZN4cppu18OPropertySetHelper8getTypesEv;
} UDK_3.2;

UDK_3.4 { # OOo 2.4
    global:
        _ZN4cppu19bootstrap_expandUriERKN3rtl8OUStringE; # rtl::OUString cppu::bootstrap_expandUri(rtl::OUString const &)
} UDK_3.3;

UDK_3.5 { # OOo 3.0
    global:
        _ZN4cppu18OPropertySetHelperC1ERNS_19OBroadcastHelperVarINS_34OMultiTypeInterfaceContainerHelperEN3com3sun4star3uno4TypeEEEPNS_22IEventNotificationHookEb;
        _ZN4cppu18OPropertySetHelperC2ERNS_19OBroadcastHelperVarINS_34OMultiTypeInterfaceContainerHelperEN3com3sun4star3uno4TypeEEEPNS_22IEventNotificationHookEb;
} UDK_3.4;

UDK_3.6 { # OOo 3.3
    global:
        _ZN4cppu11OWeakObject26disposeWeakConnectionPointEv;
        _ZN3com3sun4star3uno19WeakReferenceHelperaSERKNS2_9ReferenceINS2_10XInterfaceEEE;
        _ZN3com3sun4star3uno19WeakReferenceHelper5clearEv;
        _ZN4cppu33createOneInstanceComponentFactoryEPFN3com3sun4star3uno9ReferenceINS3_10XInterfaceEEERKNS4_INS3_17XComponentContextEEEERKN3rtl8OUStringERKNS3_8SequenceISE_EEP16_rtl_ModuleCount;
} UDK_3.5;


UDK_3.7 { # OOo 3.4
    global:
        _ZN4cppu18OPropertySetHelper29setDependentFastPropertyValueE?RKN3com3sun4star3uno3AnyE;
} UDK_3.6;

UDK_3.8 { # LibO 3.5
global:
        ## class OPropertySetHelper2
        # constructors
        _ZN4cppu19OPropertySetHelper2C1ERNS_19OBroadcastHelperVarINS_34OMultiTypeInterfaceContainerHelperEN3com3sun4star3uno4TypeEEEPNS_22IEventNotificationHookEb;
        _ZN4cppu19OPropertySetHelper2C2ERNS_19OBroadcastHelperVarINS_34OMultiTypeInterfaceContainerHelperEN3com3sun4star3uno4TypeEEEPNS_22IEventNotificationHookEb;
        # destructors
        _ZN4cppu19OPropertySetHelper2D0Ev;
        _ZN4cppu19OPropertySetHelper2D1Ev;
        _ZN4cppu19OPropertySetHelper2D2Ev;
        # queryInterface
        _ZN4cppu19OPropertySetHelper214queryInterfaceERKN3com3sun4star3uno4TypeE;
        _ZThn*_N4cppu19OPropertySetHelper214queryInterfaceERKN3com3sun4star3uno4TypeE;
        # enableChangeListenerNotification
        _ZN4cppu19OPropertySetHelper232enableChangeListenerNotificationEh;
        _ZThn*_N4cppu19OPropertySetHelper232enableChangeListenerNotificationEh;
} UDK_3.7;

UDK_3.9 { # LibO 3.7
global:
    _ZN4cppu15supportsServiceEPN3com3sun4star4lang12XServiceInfoERKN3rtl8OUStringE; # cppu::supportsService(com::sun::star::lang::XServiceInfo*, rtl::OUString const&)
} UDK_3.8;

# Unique libstdc++ symbols:
GLIBCXX_3.4 {
    global:
        _ZGVNSt7num_put*; _ZNSt7num_put*;
        _ZNSs4_Rep20_S_empty_rep_storageE;
};
