Certificate:
    Data:
        Version: 3 (0x2)
        Serial Number: 4096 (0x1000)
        Signature Algorithm: sha1WithRSAEncryption
        Issuer: C=DE, ST=Hamburg, O=OpenOffice.org, OU=Development, CN=Sub CA 1 Root 2
        Validity
            Not Before: Nov 18 16:09:55 2009 GMT
            Not After : Nov 12 16:09:55 2034 GMT
        Subject: C=DE, ST=Hamburg, O=OpenOffice.org, OU=Development, CN=User 1 Sub CA 1 Root 2
        Subject Public Key Info:
            Public Key Algorithm: rsaEncryption
            RSA Public Key: (1024 bit)
                Modulus (1024 bit):
                    00:c7:00:aa:e0:5a:42:af:9c:b5:43:8c:f4:7d:7a:
                    0f:ee:a9:19:22:d8:47:14:af:b4:e4:dd:5d:41:92:
                    a1:2b:32:39:5c:71:88:10:e3:77:87:b6:d5:38:85:
                    de:4b:91:c6:17:97:8e:3d:96:b3:af:8c:9d:74:8c:
                    88:7f:2a:72:9a:ca:1a:1b:56:6c:63:2e:a4:a0:fc:
                    3a:7b:0d:c2:16:15:d0:80:15:29:de:cd:0b:74:bc:
                    5e:31:84:71:a4:fd:be:9b:06:6a:0c:47:1d:f9:e4:
                    c1:98:ae:46:e6:e2:51:55:d5:bb:ab:05:28:69:b5:
                    f8:35:32:d6:f0:64:d8:44:81
                Exponent: 65537 (0x10001)
        X509v3 extensions:
            X509v3 Key Usage: 
                Digital Signature, Non Repudiation, Key Encipherment
            Netscape Comment: 
                OpenSSL Generated Certificate
            X509v3 Subject Key Identifier: 
                71:60:2B:22:B5:DF:FC:38:7E:79:F3:EF:7C:96:5F:C1:D2:42:9C:61
            X509v3 Authority Key Identifier: 
                keyid:8C:F3:2C:30:A2:E8:62:50:70:BC:FC:71:A0:41:FA:E0:58:B4:4D:B8

    Signature Algorithm: sha1WithRSAEncryption
        e5:b8:1a:43:82:75:20:48:e0:52:d0:46:25:6f:f7:5b:a9:3f:
        9e:cd:db:45:da:15:53:95:e7:c8:74:7b:e0:e4:2c:8c:f6:4d:
        1c:73:6e:2c:11:eb:c1:dc:4c:1d:50:e3:e8:10:2f:03:20:06:
        ff:d7:4f:c9:a2:2e:ef:85:27:92:31:47:64:c8:75:f2:fc:a4:
        9d:c9:53:55:c5:da:69:b0:96:99:fd:ac:c4:16:40:ea:0c:1b:
        32:c3:fd:65:1d:03:ad:be:60:88:7c:70:53:35:91:ce:13:e2:
        3d:23:6b:e8:23:c0:3c:9a:57:5f:ad:4b:03:94:92:16:62:f9:
        d4:01
-----BEGIN CERTIFICATE-----
MIICyzCCAjSgAwIBAgICEAAwDQYJKoZIhvcNAQEFBQAwaDELMAkGA1UEBhMCREUx
EDAOBgNVBAgTB0hhbWJ1cmcxFzAVBgNVBAoTDk9wZW5PZmZpY2Uub3JnMRQwEgYD
VQQLEwtEZXZlbG9wbWVudDEYMBYGA1UEAxMPU3ViIENBIDEgUm9vdCAyMB4XDTA5
MTExODE2MDk1NVoXDTM0MTExMjE2MDk1NVowbzELMAkGA1UEBhMCREUxEDAOBgNV
BAgTB0hhbWJ1cmcxFzAVBgNVBAoTDk9wZW5PZmZpY2Uub3JnMRQwEgYDVQQLEwtE
ZXZlbG9wbWVudDEfMB0GA1UEAxMWVXNlciAxIFN1YiBDQSAxIFJvb3QgMjCBnzAN
BgkqhkiG9w0BAQEFAAOBjQAwgYkCgYEAxwCq4FpCr5y1Q4z0fXoP7qkZIthHFK+0
5N1dQZKhKzI5XHGIEON3h7bVOIXeS5HGF5eOPZazr4yddIyIfypymsoaG1ZsYy6k
oPw6ew3CFhXQgBUp3s0LdLxeMYRxpP2+mwZqDEcd+eTBmK5G5uJRVdW7qwUoabX4
NTLW8GTYRIECAwEAAaN9MHswCwYDVR0PBAQDAgXgMCwGCWCGSAGG+EIBDQQfFh1P
cGVuU1NMIEdlbmVyYXRlZCBDZXJ0aWZpY2F0ZTAdBgNVHQ4EFgQUcWArIrXf/Dh+
efPvfJZfwdJCnGEwHwYDVR0jBBgwFoAUjPMsMKLoYlBwvPxxoEH64Fi0TbgwDQYJ
KoZIhvcNAQEFBQADgYEA5bgaQ4J1IEjgUtBGJW/3W6k/ns3bRdoVU5XnyHR74OQs
jPZNHHNuLBHrwdxMHVDj6BAvAyAG/9dPyaIu74UnkjFHZMh18vyknclTVcXaabCW
mf2sxBZA6gwbMsP9ZR0Drb5giHxwUzWRzhPiPSNr6CPAPJpXX61LA5SSFmL51AE=
-----END CERTIFICATE-----
