Certificate:
    Data:
        Version: 3 (0x2)
        Serial Number: 4096 (0x1000)
        Signature Algorithm: sha1WithRSAEncryption
        Issuer: C=DE, ST=Hamburg, O=OpenOffice.org, OU=Development, CN=Sub CA 1 Root 7
        Validity
            Not Before: Nov 20 13:19:04 2009 GMT
            Not After : Nov 14 13:19:04 2034 GMT
        Subject: C=DE, ST=Hamburg, O=OpenOffice.org, OU=Development, CN=User 1 Sub CA 1 Root 7
        Subject Public Key Info:
            Public Key Algorithm: rsaEncryption
            RSA Public Key: (1024 bit)
                Modulus (1024 bit):
                    00:ce:23:98:19:ac:0d:7c:f0:60:a2:94:72:c3:ab:
                    a5:a1:6b:d3:af:8c:cb:b9:c9:ee:0b:3e:a4:2e:0e:
                    08:a5:a9:4c:09:2f:1a:a0:fe:87:89:41:4a:aa:b6:
                    ac:b4:bc:d3:0e:f9:c3:12:1f:b1:90:b3:6d:72:a6:
                    38:5b:9d:05:7e:97:ff:f4:e1:31:2b:b4:08:de:b1:
                    43:fe:1d:7e:32:54:ce:db:d5:14:21:f3:ad:9f:26:
                    f3:c6:0b:77:51:e4:11:88:ad:86:e1:30:d1:af:87:
                    29:c0:7b:92:db:68:06:74:ca:27:ac:0b:61:3a:ac:
                    ba:03:35:e7:8e:08:28:58:7d
                Exponent: 65537 (0x10001)
        X509v3 extensions:
            X509v3 CRL Distribution Points: 
                URI:http://localhost:8902/demoCA/crl/Sub_CA_1_Root_7.crl

            X509v3 Key Usage: 
                Digital Signature, Non Repudiation, Key Encipherment
            X509v3 Subject Key Identifier: 
                DE:66:84:E4:9B:BF:70:00:BD:60:3D:34:45:96:FE:FD:D5:88:9B:CD
            X509v3 Authority Key Identifier: 
                keyid:54:64:15:7E:93:8A:19:C8:F9:B7:EF:60:A0:DF:5C:C8:15:56:C0:EE

    Signature Algorithm: sha1WithRSAEncryption
        6e:da:66:d2:3b:00:d6:0b:5a:9f:21:28:de:e1:10:fe:fd:26:
        db:a6:75:86:74:47:e4:b0:b7:c4:c1:dc:43:82:51:71:00:8f:
        bf:71:9a:23:db:2d:79:27:a2:80:2e:12:a4:5f:13:0c:73:53:
        1e:5c:33:6a:e9:31:be:e2:ae:4f:55:b0:e8:0a:0f:54:f0:3a:
        7e:14:41:d7:34:18:58:90:26:63:7d:2c:1a:ab:93:7f:4a:3d:
        5e:cf:f1:9d:c3:76:ee:a4:76:1c:d8:f9:d0:ac:53:3c:1a:4d:
        c7:fa:b6:23:54:4b:04:a1:e2:76:a5:e3:0d:b8:db:8e:d3:39:
        c2:65
-----BEGIN CERTIFICATE-----
MIIC5jCCAk+gAwIBAgICEAAwDQYJKoZIhvcNAQEFBQAwaDELMAkGA1UEBhMCREUx
EDAOBgNVBAgTB0hhbWJ1cmcxFzAVBgNVBAoTDk9wZW5PZmZpY2Uub3JnMRQwEgYD
VQQLEwtEZXZlbG9wbWVudDEYMBYGA1UEAxMPU3ViIENBIDEgUm9vdCA3MB4XDTA5
MTEyMDEzMTkwNFoXDTM0MTExNDEzMTkwNFowbzELMAkGA1UEBhMCREUxEDAOBgNV
BAgTB0hhbWJ1cmcxFzAVBgNVBAoTDk9wZW5PZmZpY2Uub3JnMRQwEgYDVQQLEwtE
ZXZlbG9wbWVudDEfMB0GA1UEAxMWVXNlciAxIFN1YiBDQSAxIFJvb3QgNzCBnzAN
BgkqhkiG9w0BAQEFAAOBjQAwgYkCgYEAziOYGawNfPBgopRyw6uloWvTr4zLucnu
Cz6kLg4IpalMCS8aoP6HiUFKqrastLzTDvnDEh+xkLNtcqY4W50Ffpf/9OExK7QI
3rFD/h1+MlTO29UUIfOtnybzxgt3UeQRiK2G4TDRr4cpwHuS22gGdMonrAthOqy6
AzXnjggoWH0CAwEAAaOBlzCBlDBFBgNVHR8EPjA8MDqgOKA2hjRodHRwOi8vbG9j
YWxob3N0Ojg5MDIvZGVtb0NBL2NybC9TdWJfQ0FfMV9Sb290XzcuY3JsMAsGA1Ud
DwQEAwIF4DAdBgNVHQ4EFgQU3maE5Ju/cAC9YD00RZb+/dWIm80wHwYDVR0jBBgw
FoAUVGQVfpOKGcj5t+9goN9cyBVWwO4wDQYJKoZIhvcNAQEFBQADgYEAbtpm0jsA
1gtanyEo3uEQ/v0m26Z1hnRH5LC3xMHcQ4JRcQCPv3GaI9steSeigC4SpF8TDHNT
HlwzaukxvuKuT1Ww6AoPVPA6fhRB1zQYWJAmY30sGquTf0o9Xs/xncN27qR2HNj5
0KxTPBpNx/q2I1RLBKHidqXjDbjbjtM5wmU=
-----END CERTIFICATE-----
