Certificate:
    Data:
        Version: 3 (0x2)
        Serial Number: 4097 (0x1001)
        Signature Algorithm: sha1WithRSAEncryption
        Issuer: C=DE, ST=Hamburg, O=OpenOffice.org, OU=Development, CN=Sub CA 1 Root 7
        Validity
            Not Before: Nov 20 13:26:48 2009 GMT
            Not After : Nov 14 13:26:48 2034 GMT
        Subject: C=DE, ST=Hamburg, O=OpenOffice.org, OU=Development, CN=User 2 Sub CA 1 Root 7
        Subject Public Key Info:
            Public Key Algorithm: rsaEncryption
            RSA Public Key: (1024 bit)
                Modulus (1024 bit):
                    00:b3:58:b2:22:45:b9:37:83:e5:a4:6f:5d:4e:59:
                    60:60:4e:46:26:27:9a:70:4d:34:89:cf:cb:4f:4f:
                    0b:22:6e:e4:21:e6:ab:c9:0a:4a:c4:cd:6f:3c:db:
                    e8:a3:52:55:2d:26:1d:13:9a:8b:cf:38:25:4e:4f:
                    4a:e3:39:01:fa:5b:10:a5:3e:e1:93:65:19:ca:8b:
                    5c:9f:e8:19:ed:0a:ef:47:e9:11:73:28:ce:b0:95:
                    10:3a:ce:b5:46:89:79:a3:90:ea:d5:ca:ac:c9:af:
                    ee:55:0d:6c:32:5f:d2:f1:76:1c:b9:e7:d2:ac:07:
                    61:83:82:c5:95:5a:62:ff:67
                Exponent: 65537 (0x10001)
        X509v3 extensions:
            X509v3 CRL Distribution Points: 
                URI:http://localhost:8902/demoCA/crl/Sub_CA_1_Root_7.crl

            X509v3 Key Usage: 
                Digital Signature, Non Repudiation, Key Encipherment
            X509v3 Subject Key Identifier: 
                12:7A:7A:69:C5:FE:E0:23:FD:8E:51:25:55:94:9F:C8:44:D8:F2:29
            X509v3 Authority Key Identifier: 
                keyid:54:64:15:7E:93:8A:19:C8:F9:B7:EF:60:A0:DF:5C:C8:15:56:C0:EE

    Signature Algorithm: sha1WithRSAEncryption
        4a:57:08:6a:66:af:b4:05:4f:b3:4c:39:23:2b:5d:c9:88:7b:
        6f:b5:28:a3:5a:72:e6:0b:e2:9e:64:65:ce:8f:b5:31:0f:5f:
        c7:b7:56:96:4f:d3:34:65:1a:ea:84:60:2b:fe:27:1f:75:fd:
        0f:53:e5:eb:25:d3:f6:2c:21:72:59:40:32:ba:ec:72:cc:64:
        d6:1d:db:cf:ca:ec:91:0a:81:ef:f5:e4:56:31:a3:c2:9a:1d:
        e9:5c:48:b0:7c:7b:e2:51:35:33:ad:a8:5c:79:ac:ee:bf:42:
        fa:0b:a0:02:72:cc:5e:07:c0:d4:d3:96:26:16:3e:8c:32:8d:
        b4:09
-----BEGIN CERTIFICATE-----
MIIC5jCCAk+gAwIBAgICEAEwDQYJKoZIhvcNAQEFBQAwaDELMAkGA1UEBhMCREUx
EDAOBgNVBAgTB0hhbWJ1cmcxFzAVBgNVBAoTDk9wZW5PZmZpY2Uub3JnMRQwEgYD
VQQLEwtEZXZlbG9wbWVudDEYMBYGA1UEAxMPU3ViIENBIDEgUm9vdCA3MB4XDTA5
MTEyMDEzMjY0OFoXDTM0MTExNDEzMjY0OFowbzELMAkGA1UEBhMCREUxEDAOBgNV
BAgTB0hhbWJ1cmcxFzAVBgNVBAoTDk9wZW5PZmZpY2Uub3JnMRQwEgYDVQQLEwtE
ZXZlbG9wbWVudDEfMB0GA1UEAxMWVXNlciAyIFN1YiBDQSAxIFJvb3QgNzCBnzAN
BgkqhkiG9w0BAQEFAAOBjQAwgYkCgYEAs1iyIkW5N4PlpG9dTllgYE5GJieacE00
ic/LT08LIm7kIearyQpKxM1vPNvoo1JVLSYdE5qLzzglTk9K4zkB+lsQpT7hk2UZ
yotcn+gZ7QrvR+kRcyjOsJUQOs61Rol5o5Dq1cqsya/uVQ1sMl/S8XYcuefSrAdh
g4LFlVpi/2cCAwEAAaOBlzCBlDBFBgNVHR8EPjA8MDqgOKA2hjRodHRwOi8vbG9j
YWxob3N0Ojg5MDIvZGVtb0NBL2NybC9TdWJfQ0FfMV9Sb290XzcuY3JsMAsGA1Ud
DwQEAwIF4DAdBgNVHQ4EFgQUEnp6acX+4CP9jlElVZSfyETY8ikwHwYDVR0jBBgw
FoAUVGQVfpOKGcj5t+9goN9cyBVWwO4wDQYJKoZIhvcNAQEFBQADgYEASlcIamav
tAVPs0w5IytdyYh7b7Uoo1py5gvinmRlzo+1MQ9fx7dWlk/TNGUa6oRgK/4nH3X9
D1Pl6yXT9iwhcllAMrrscsxk1h3bz8rskQqB7/XkVjGjwpod6VxIsHx74lE1M62o
XHms7r9C+gugAnLMXgfA1NOWJhY+jDKNtAk=
-----END CERTIFICATE-----
