Certificate:
    Data:
        Version: 3 (0x2)
        Serial Number: 4096 (0x1000)
        Signature Algorithm: sha1WithRSAEncryption
        Issuer: C=DE, ST=Hamburg, O=OpenOffice.org, OU=Development, CN=Sub CA 2 Root 7
        Validity
            Not Before: Nov 20 13:46:08 2009 GMT
            Not After : Nov 14 13:46:08 2034 GMT
        Subject: C=DE, ST=Hamburg, O=OpenOffice.org, OU=Development, CN=User 1 Sub CA 2 Root 7
        Subject Public Key Info:
            Public Key Algorithm: rsaEncryption
            RSA Public Key: (1024 bit)
                Modulus (1024 bit):
                    00:a7:6b:af:a2:6e:61:33:2e:71:7b:e2:38:44:d9:
                    4c:da:6e:86:bb:c6:f5:64:8e:2e:8b:e8:71:c8:46:
                    ad:c5:46:05:d2:06:a6:89:e2:ce:1f:1c:a7:4c:94:
                    a4:24:56:93:07:b1:c4:52:44:69:27:0b:34:eb:31:
                    20:71:63:5c:0a:33:aa:0c:39:71:ac:08:49:c3:66:
                    ac:cb:e3:a8:66:ab:5c:a2:00:7a:bb:24:e6:93:91:
                    1e:0e:7c:83:9e:f2:10:87:3f:0e:c0:f6:e5:bf:2c:
                    d3:cc:17:4c:d5:9a:96:35:4b:4e:ca:72:3a:9b:90:
                    c8:4c:24:04:2f:51:99:20:95
                Exponent: 65537 (0x10001)
        X509v3 extensions:
            X509v3 CRL Distribution Points: 
                URI:http://localhost:8902/demoCA/crl/Sub_CA_2_Root_7.crl

            X509v3 Key Usage: 
                Digital Signature, Non Repudiation, Key Encipherment
            X509v3 Subject Key Identifier: 
                27:98:7E:F6:AD:82:6D:F4:7A:32:AE:F1:54:D1:07:AE:08:0E:0E:2B
            X509v3 Authority Key Identifier: 
                keyid:3B:50:26:45:6C:E2:FE:28:B1:71:0A:A8:95:2D:78:63:8E:2C:48:92

    Signature Algorithm: sha1WithRSAEncryption
        06:7d:0a:e8:fa:8b:87:1d:75:61:2b:c7:d1:6d:56:5f:26:e3:
        29:b4:c3:27:05:35:0f:b7:c1:20:42:95:0b:9d:34:16:5d:9b:
        c2:48:c8:67:e1:e7:43:eb:10:9e:45:3e:44:da:7c:4b:19:05:
        00:66:91:83:ea:82:86:48:e8:87:ea:a0:9f:c9:1d:f8:af:13:
        fd:2e:4e:50:7e:a0:d2:b0:5e:a4:6f:dd:e6:c8:11:60:bc:41:
        e5:b6:01:4c:7a:af:32:f6:cc:5b:57:e6:e4:87:21:ec:17:98:
        67:eb:4d:2f:07:db:8f:70:e2:f3:77:8f:c7:ff:60:d6:d9:f7:
        82:e3
-----BEGIN CERTIFICATE-----
MIIC5jCCAk+gAwIBAgICEAAwDQYJKoZIhvcNAQEFBQAwaDELMAkGA1UEBhMCREUx
EDAOBgNVBAgTB0hhbWJ1cmcxFzAVBgNVBAoTDk9wZW5PZmZpY2Uub3JnMRQwEgYD
VQQLEwtEZXZlbG9wbWVudDEYMBYGA1UEAxMPU3ViIENBIDIgUm9vdCA3MB4XDTA5
MTEyMDEzNDYwOFoXDTM0MTExNDEzNDYwOFowbzELMAkGA1UEBhMCREUxEDAOBgNV
BAgTB0hhbWJ1cmcxFzAVBgNVBAoTDk9wZW5PZmZpY2Uub3JnMRQwEgYDVQQLEwtE
ZXZlbG9wbWVudDEfMB0GA1UEAxMWVXNlciAxIFN1YiBDQSAyIFJvb3QgNzCBnzAN
BgkqhkiG9w0BAQEFAAOBjQAwgYkCgYEAp2uvom5hMy5xe+I4RNlM2m6Gu8b1ZI4u
i+hxyEatxUYF0gamieLOHxynTJSkJFaTB7HEUkRpJws06zEgcWNcCjOqDDlxrAhJ
w2asy+OoZqtcogB6uyTmk5EeDnyDnvIQhz8OwPblvyzTzBdM1ZqWNUtOynI6m5DI
TCQEL1GZIJUCAwEAAaOBlzCBlDBFBgNVHR8EPjA8MDqgOKA2hjRodHRwOi8vbG9j
YWxob3N0Ojg5MDIvZGVtb0NBL2NybC9TdWJfQ0FfMl9Sb290XzcuY3JsMAsGA1Ud
DwQEAwIF4DAdBgNVHQ4EFgQUJ5h+9q2CbfR6Mq7xVNEHrggODiswHwYDVR0jBBgw
FoAUO1AmRWzi/iixcQqolS14Y44sSJIwDQYJKoZIhvcNAQEFBQADgYEABn0K6PqL
hx11YSvH0W1WXybjKbTDJwU1D7fBIEKVC500Fl2bwkjIZ+HnQ+sQnkU+RNp8SxkF
AGaRg+qChkjoh+qgn8kd+K8T/S5OUH6g0rBepG/d5sgRYLxB5bYBTHqvMvbMW1fm
5Ich7BeYZ+tNLwfbj3Di83ePx/9g1tn3guM=
-----END CERTIFICATE-----
