Certificate:
    Data:
        Version: 3 (0x2)
        Serial Number: 4097 (0x1001)
        Signature Algorithm: sha1WithRSAEncryption
        Issuer: C=DE, ST=Hamburg, O=OpenOffice.org, OU=Development, CN=Sub CA 2 Root 7
        Validity
            Not Before: Nov 20 13:52:30 2009 GMT
            Not After : Nov 14 13:52:30 2034 GMT
        Subject: C=DE, ST=Hamburg, O=OpenOffice.org, OU=Development, CN=User 2 Sub CA 2 Root 7
        Subject Public Key Info:
            Public Key Algorithm: rsaEncryption
            RSA Public Key: (1024 bit)
                Modulus (1024 bit):
                    00:d3:1f:7e:28:b6:fd:f0:bb:01:21:88:04:c4:da:
                    3d:6a:ce:09:8e:04:29:a5:0f:38:db:74:d0:ee:ad:
                    5c:95:79:16:11:c0:b1:51:69:95:bb:a8:8f:8b:1c:
                    7b:8c:82:27:16:21:82:82:d7:36:6f:b3:bb:36:a8:
                    ad:69:e2:e3:cd:6f:ef:81:ac:fa:e3:a9:ac:86:b7:
                    31:1d:75:11:a3:2e:1d:89:0b:9c:5e:03:45:7a:b0:
                    a9:9d:ee:31:f1:15:c1:c5:f6:26:8e:d4:89:72:8f:
                    f4:86:94:d1:49:37:24:56:84:10:db:cc:f2:1d:3e:
                    58:66:97:b2:17:6f:15:cb:81
                Exponent: 65537 (0x10001)
        X509v3 extensions:
            X509v3 CRL Distribution Points: 
                URI:http://localhost:8902/demoCA/crl/Sub_CA_2_Root_7.crl

            X509v3 Key Usage: 
                Digital Signature, Non Repudiation, Key Encipherment
            X509v3 Subject Key Identifier: 
                CD:A2:AE:51:D0:CF:A2:89:3A:53:23:74:1D:69:10:EE:2A:40:3A:22
            X509v3 Authority Key Identifier: 
                keyid:3B:50:26:45:6C:E2:FE:28:B1:71:0A:A8:95:2D:78:63:8E:2C:48:92

    Signature Algorithm: sha1WithRSAEncryption
        40:8a:be:55:1f:d9:0f:96:fd:54:dd:9f:6b:1d:b1:34:ed:b7:
        11:6d:72:a9:65:9a:39:bd:79:3b:d3:4e:0c:22:60:39:e8:c0:
        2c:34:64:09:2c:0c:aa:f7:f9:9d:f1:d9:b9:04:d6:e2:c4:cb:
        d5:05:33:75:5e:87:c0:2c:80:06:8b:6e:9c:ad:0c:7f:03:c0:
        f5:91:e4:3a:64:b9:52:3b:5a:e0:e5:79:32:89:fb:4a:54:68:
        9a:e6:72:3e:61:93:a3:2a:67:aa:95:d0:3d:37:33:5c:da:6e:
        a6:ac:3d:b6:b1:ac:68:f0:8c:8b:6b:96:a5:f7:ed:2d:6e:64:
        c7:11
-----BEGIN CERTIFICATE-----
MIIC5jCCAk+gAwIBAgICEAEwDQYJKoZIhvcNAQEFBQAwaDELMAkGA1UEBhMCREUx
EDAOBgNVBAgTB0hhbWJ1cmcxFzAVBgNVBAoTDk9wZW5PZmZpY2Uub3JnMRQwEgYD
VQQLEwtEZXZlbG9wbWVudDEYMBYGA1UEAxMPU3ViIENBIDIgUm9vdCA3MB4XDTA5
MTEyMDEzNTIzMFoXDTM0MTExNDEzNTIzMFowbzELMAkGA1UEBhMCREUxEDAOBgNV
BAgTB0hhbWJ1cmcxFzAVBgNVBAoTDk9wZW5PZmZpY2Uub3JnMRQwEgYDVQQLEwtE
ZXZlbG9wbWVudDEfMB0GA1UEAxMWVXNlciAyIFN1YiBDQSAyIFJvb3QgNzCBnzAN
BgkqhkiG9w0BAQEFAAOBjQAwgYkCgYEA0x9+KLb98LsBIYgExNo9as4JjgQppQ84
23TQ7q1clXkWEcCxUWmVu6iPixx7jIInFiGCgtc2b7O7NqitaeLjzW/vgaz646ms
hrcxHXURoy4diQucXgNFerCpne4x8RXBxfYmjtSJco/0hpTRSTckVoQQ28zyHT5Y
ZpeyF28Vy4ECAwEAAaOBlzCBlDBFBgNVHR8EPjA8MDqgOKA2hjRodHRwOi8vbG9j
YWxob3N0Ojg5MDIvZGVtb0NBL2NybC9TdWJfQ0FfMl9Sb290XzcuY3JsMAsGA1Ud
DwQEAwIF4DAdBgNVHQ4EFgQUzaKuUdDPook6UyN0HWkQ7ipAOiIwHwYDVR0jBBgw
FoAUO1AmRWzi/iixcQqolS14Y44sSJIwDQYJKoZIhvcNAQEFBQADgYEAQIq+VR/Z
D5b9VN2fax2xNO23EW1yqWWaOb15O9NODCJgOejALDRkCSwMqvf5nfHZuQTW4sTL
1QUzdV6HwCyABotunK0MfwPA9ZHkOmS5Ujta4OV5Mon7SlRomuZyPmGToypnqpXQ
PTczXNpupqw9trGsaPCMi2uWpfftLW5kxxE=
-----END CERTIFICATE-----
