Certificate:
    Data:
        Version: 3 (0x2)
        Serial Number: 4096 (0x1000)
        Signature Algorithm: sha1WithRSAEncryption
        Issuer: C=DE, ST=Hamburg, O=OpenOffice.org, OU=Development, CN=Sub CA 1 Root 1
        Validity
            Not Before: Nov 18 15:23:23 2009 GMT
            Not After : Nov 12 15:23:23 2034 GMT
        Subject: C=DE, ST=Hamburg, O=OpenOffice.org, OU=Development, CN=User 1 Sub CA 1 Root 1
        Subject Public Key Info:
            Public Key Algorithm: rsaEncryption
            RSA Public Key: (1024 bit)
                Modulus (1024 bit):
                    00:c8:41:66:84:c7:d5:c5:72:8f:a6:98:1b:59:e2:
                    33:ca:0d:d2:24:b3:c1:47:db:11:e2:bf:23:da:32:
                    68:41:cc:ff:28:fe:9a:39:49:e7:08:f0:22:75:15:
                    61:99:9e:99:e5:14:65:71:60:00:0f:58:42:70:78:
                    5a:1e:d8:fa:97:92:82:0e:e3:0c:ac:20:dc:b8:e3:
                    5e:87:8b:89:e3:a1:c3:87:49:1d:92:a5:fd:7c:77:
                    79:ce:1f:fa:9c:5a:17:d9:11:0c:f2:7f:1a:fa:d8:
                    32:41:f8:69:80:ae:8a:66:bd:36:c2:21:65:57:08:
                    be:cf:f0:ec:83:15:98:6d:65
                Exponent: 65537 (0x10001)
        X509v3 extensions:
            Netscape Comment: 
                OpenSSL Generated Certificate
            X509v3 Subject Key Identifier: 
                FF:BB:B0:7F:E3:0E:E3:8C:CF:EC:88:49:A9:0E:62:B5:D3:60:12:46
            X509v3 Authority Key Identifier: 
                keyid:37:71:74:81:44:DD:1E:B1:60:96:41:B7:4B:38:C4:B7:79:1B:CF:8A

    Signature Algorithm: sha1WithRSAEncryption
        33:dd:e8:57:3e:69:1b:a0:4c:83:51:99:dd:73:b0:0c:cb:c7:
        c0:ff:12:8b:b6:3b:59:12:b9:f1:20:87:75:f0:71:6e:bc:94:
        47:72:62:ae:93:90:05:e2:ff:63:31:5a:d2:80:a5:4a:7f:57:
        e9:f7:4e:3e:be:bd:4c:9e:74:07:19:b0:4d:88:97:af:23:a7:
        5a:23:af:d1:a9:98:9b:55:7e:fa:6b:18:77:03:c4:aa:49:bc:
        b6:3d:66:3e:8d:0a:80:5f:ac:b9:58:fb:11:ef:60:db:ad:a8:
        79:41:83:1a:6a:61:87:99:64:2d:e4:6a:bb:c0:30:00:dd:69:
        e5:92
-----BEGIN CERTIFICATE-----
MIICvjCCAiegAwIBAgICEAAwDQYJKoZIhvcNAQEFBQAwaDELMAkGA1UEBhMCREUx
EDAOBgNVBAgTB0hhbWJ1cmcxFzAVBgNVBAoTDk9wZW5PZmZpY2Uub3JnMRQwEgYD
VQQLEwtEZXZlbG9wbWVudDEYMBYGA1UEAxMPU3ViIENBIDEgUm9vdCAxMB4XDTA5
MTExODE1MjMyM1oXDTM0MTExMjE1MjMyM1owbzELMAkGA1UEBhMCREUxEDAOBgNV
BAgTB0hhbWJ1cmcxFzAVBgNVBAoTDk9wZW5PZmZpY2Uub3JnMRQwEgYDVQQLEwtE
ZXZlbG9wbWVudDEfMB0GA1UEAxMWVXNlciAxIFN1YiBDQSAxIFJvb3QgMTCBnzAN
BgkqhkiG9w0BAQEFAAOBjQAwgYkCgYEAyEFmhMfVxXKPppgbWeIzyg3SJLPBR9sR
4r8j2jJoQcz/KP6aOUnnCPAidRVhmZ6Z5RRlcWAAD1hCcHhaHtj6l5KCDuMMrCDc
uONeh4uJ46HDh0kdkqX9fHd5zh/6nFoX2REM8n8a+tgyQfhpgK6KZr02wiFlVwi+
z/DsgxWYbWUCAwEAAaNwMG4wLAYJYIZIAYb4QgENBB8WHU9wZW5TU0wgR2VuZXJh
dGVkIENlcnRpZmljYXRlMB0GA1UdDgQWBBT/u7B/4w7jjM/siEmpDmK102ASRjAf
BgNVHSMEGDAWgBQ3cXSBRN0esWCWQbdLOMS3eRvPijANBgkqhkiG9w0BAQUFAAOB
gQAz3ehXPmkboEyDUZndc7AMy8fA/xKLtjtZErnxIId18HFuvJRHcmKuk5AF4v9j
MVrSgKVKf1fp904+vr1MnnQHGbBNiJevI6daI6/RqZibVX76axh3A8SqSby2PWY+
jQqAX6y5WPsR72Dbrah5QYMaamGHmWQt5Gq7wDAA3Wnlkg==
-----END CERTIFICATE-----
