Certificate:
    Data:
        Version: 3 (0x2)
        Serial Number: 4096 (0x1000)
        Signature Algorithm: sha1WithRSAEncryption
        Issuer: C=DE, ST=Hamburg, O=OpenOffice.org, OU=Development, CN=Root 7
        Validity
            Not Before: Nov 20 13:07:53 2009 GMT
            Not After : Nov 14 13:07:53 2034 GMT
        Subject: C=DE, ST=Hamburg, O=OpenOffice.org, OU=Development, CN=Sub CA 1 Root 7
        Subject Public Key Info:
            Public Key Algorithm: rsaEncryption
            RSA Public Key: (1024 bit)
                Modulus (1024 bit):
                    00:b0:ae:6d:0a:21:ae:8a:92:b1:16:25:d3:08:cb:
                    ac:b7:4c:53:6d:4b:b3:12:82:40:54:c9:44:28:fc:
                    4e:10:e6:65:40:de:70:5d:8b:ab:1f:5c:77:03:43:
                    3d:3a:3d:9e:f7:37:66:9a:33:68:a0:cf:ad:8f:f4:
                    fb:9c:a3:87:57:5d:ec:d6:55:5a:18:b5:e1:2b:d2:
                    c4:10:fe:f0:01:a5:da:29:ee:c4:af:15:c9:8c:dc:
                    7c:45:84:bd:e5:5b:09:1f:16:1d:11:e7:61:e6:22:
                    e7:1f:c8:86:bf:a1:da:cb:fe:6b:7e:c0:6e:aa:7f:
                    97:84:e8:8f:81:69:f1:26:87
                Exponent: 65537 (0x10001)
        X509v3 extensions:
            X509v3 Subject Key Identifier: 
                54:64:15:7E:93:8A:19:C8:F9:B7:EF:60:A0:DF:5C:C8:15:56:C0:EE
            X509v3 Authority Key Identifier: 
                keyid:80:C6:F8:0B:5F:7C:49:E4:86:FD:C8:92:C6:80:70:D9:C0:6F:7B:DE
                DirName:/C=DE/ST=Hamburg/O=OpenOffice.org/OU=Development/CN=Root 7
                serial:D5:E6:63:5F:18:09:82:89

            X509v3 CRL Distribution Points: 
                URI:http://localhost:8901/demoCA/crl/Root_7.crl

            X509v3 Basic Constraints: critical
                CA:TRUE
    Signature Algorithm: sha1WithRSAEncryption
        1a:bc:5a:4b:9a:d5:e8:c0:35:c2:61:0a:58:7d:33:e2:87:01:
        61:83:80:42:8d:1a:7e:b1:9a:58:d5:01:fd:e7:ae:5c:c8:65:
        fb:9e:1d:bf:49:ba:ed:40:f4:05:7c:3b:2d:db:0e:53:d0:05:
        a0:bd:15:87:c4:37:22:0b:a0:04:a3:ad:cb:57:b2:00:97:ee:
        8f:89:91:8e:7d:0b:e2:27:96:6e:0f:ab:73:33:59:fa:9f:37:
        f2:77:79:99:af:72:ad:f9:49:05:ed:55:08:31:eb:97:0f:99:
        6e:9c:a3:df:f0:52:1a:14:4e:78:25:0c:8b:02:cb:56:e9:4d:
        f5:9f
-----BEGIN CERTIFICATE-----
MIIDRjCCAq+gAwIBAgICEAAwDQYJKoZIhvcNAQEFBQAwXzELMAkGA1UEBhMCREUx
EDAOBgNVBAgTB0hhbWJ1cmcxFzAVBgNVBAoTDk9wZW5PZmZpY2Uub3JnMRQwEgYD
VQQLEwtEZXZlbG9wbWVudDEPMA0GA1UEAxMGUm9vdCA3MB4XDTA5MTEyMDEzMDc1
M1oXDTM0MTExNDEzMDc1M1owaDELMAkGA1UEBhMCREUxEDAOBgNVBAgTB0hhbWJ1
cmcxFzAVBgNVBAoTDk9wZW5PZmZpY2Uub3JnMRQwEgYDVQQLEwtEZXZlbG9wbWVu
dDEYMBYGA1UEAxMPU3ViIENBIDEgUm9vdCA3MIGfMA0GCSqGSIb3DQEBAQUAA4GN
ADCBiQKBgQCwrm0KIa6KkrEWJdMIy6y3TFNtS7MSgkBUyUQo/E4Q5mVA3nBdi6sf
XHcDQz06PZ73N2aaM2igz62P9Puco4dXXezWVVoYteEr0sQQ/vABpdop7sSvFcmM
3HxFhL3lWwkfFh0R52HmIucfyIa/odrL/mt+wG6qf5eE6I+BafEmhwIDAQABo4IB
BjCCAQIwHQYDVR0OBBYEFFRkFX6TihnI+bfvYKDfXMgVVsDuMIGRBgNVHSMEgYkw
gYaAFIDG+AtffEnkhv3IksaAcNnAb3veoWOkYTBfMQswCQYDVQQGEwJERTEQMA4G
A1UECBMHSGFtYnVyZzEXMBUGA1UEChMOT3Blbk9mZmljZS5vcmcxFDASBgNVBAsT
C0RldmVsb3BtZW50MQ8wDQYDVQQDEwZSb290IDeCCQDV5mNfGAmCiTA8BgNVHR8E
NTAzMDGgL6AthitodHRwOi8vbG9jYWxob3N0Ojg5MDEvZGVtb0NBL2NybC9Sb290
XzcuY3JsMA8GA1UdEwEB/wQFMAMBAf8wDQYJKoZIhvcNAQEFBQADgYEAGrxaS5rV
6MA1wmEKWH0z4ocBYYOAQo0afrGaWNUB/eeuXMhl+54dv0m67UD0BXw7LdsOU9AF
oL0Vh8Q3IgugBKOty1eyAJfuj4mRjn0L4ieWbg+rczNZ+p838nd5ma9yrflJBe1V
CDHrlw+Zbpyj3/BSGhROeCUMiwLLVulN9Z8=
-----END CERTIFICATE-----
