Certificate:
    Data:
        Version: 3 (0x2)
        Serial Number: 4096 (0x1000)
        Signature Algorithm: sha1WithRSAEncryption
        Issuer: C=DE, ST=Hamburg, O=OpenOffice.org, OU=Development, CN=Root 3
        Validity
            Not Before: Nov 20 07:40:39 2009 GMT
            Not After : Nov 14 07:40:39 2034 GMT
        Subject: C=DE, ST=Hamburg, O=OpenOffice.org, OU=Development, CN=Sub CA 1 Root 3
        Subject Public Key Info:
            Public Key Algorithm: rsaEncryption
            RSA Public Key: (1024 bit)
                Modulus (1024 bit):
                    00:9e:87:1f:af:f0:a0:1c:f4:9e:f8:c3:e7:ee:d3:
                    cb:a8:e2:54:98:ba:dd:7e:dc:6e:14:e1:7e:7f:5b:
                    1e:ef:53:3d:89:76:ea:e2:b3:6c:08:0d:e8:c8:4d:
                    24:40:ff:92:f3:5b:51:f7:90:ac:69:37:29:90:f5:
                    e8:95:6f:67:d1:10:cd:7b:dd:65:38:d6:25:ec:63:
                    39:ba:2e:ea:13:58:8e:7a:82:8e:10:d1:7b:77:7a:
                    08:d5:82:66:62:a4:83:39:ad:f5:83:d5:2f:5c:bc:
                    23:6e:c8:78:8b:38:9f:eb:a3:67:ba:43:fa:e4:07:
                    3f:90:72:db:0c:f9:49:0e:0d
                Exponent: 65537 (0x10001)
        X509v3 extensions:
            X509v3 Subject Key Identifier: 
                1B:2D:E0:A2:26:7F:0D:BA:38:7E:EC:06:81:81:0F:12:74:4C:5A:4D
            X509v3 Authority Key Identifier: 
                keyid:69:FF:30:EC:1F:34:9A:67:3A:6B:20:D2:DF:7F:F5:05:04:ED:F9:1C
                DirName:/C=DE/ST=Hamburg/O=OpenOffice.org/OU=Development/CN=Root 3
                serial:95:6F:F0:E3:2B:BE:76:F9

            X509v3 Basic Constraints: critical
                CA:TRUE
    Signature Algorithm: sha1WithRSAEncryption
        6f:ac:53:9d:16:6e:95:ed:97:60:ed:c8:a8:96:ab:24:c5:1e:
        d5:d7:26:98:fb:b5:aa:ef:da:a4:91:6a:82:55:ec:21:a2:08:
        24:c7:0c:a7:58:0c:06:69:3d:04:7d:08:f1:0b:77:41:ad:1c:
        13:c2:bd:17:c9:9e:ff:df:64:69:8b:58:f1:bc:40:bd:cf:e4:
        57:29:bc:5e:93:84:61:56:4c:e6:c1:3a:2c:6e:71:ea:5d:67:
        c0:54:be:4f:2f:27:a8:59:8d:29:94:ba:c6:6c:ff:ed:25:3d:
        0b:fa:93:c9:45:f4:d5:a3:3d:be:8a:f1:9d:c4:92:d5:5c:d2:
        77:7c
-----BEGIN CERTIFICATE-----
MIIDBjCCAm+gAwIBAgICEAAwDQYJKoZIhvcNAQEFBQAwXzELMAkGA1UEBhMCREUx
EDAOBgNVBAgTB0hhbWJ1cmcxFzAVBgNVBAoTDk9wZW5PZmZpY2Uub3JnMRQwEgYD
VQQLEwtEZXZlbG9wbWVudDEPMA0GA1UEAxMGUm9vdCAzMB4XDTA5MTEyMDA3NDAz
OVoXDTM0MTExNDA3NDAzOVowaDELMAkGA1UEBhMCREUxEDAOBgNVBAgTB0hhbWJ1
cmcxFzAVBgNVBAoTDk9wZW5PZmZpY2Uub3JnMRQwEgYDVQQLEwtEZXZlbG9wbWVu
dDEYMBYGA1UEAxMPU3ViIENBIDEgUm9vdCAzMIGfMA0GCSqGSIb3DQEBAQUAA4GN
ADCBiQKBgQCehx+v8KAc9J74w+fu08uo4lSYut1+3G4U4X5/Wx7vUz2Jduris2wI
DejITSRA/5LzW1H3kKxpNymQ9eiVb2fREM173WU41iXsYzm6LuoTWI56go4Q0Xt3
egjVgmZipIM5rfWD1S9cvCNuyHiLOJ/ro2e6Q/rkBz+QctsM+UkODQIDAQABo4HH
MIHEMB0GA1UdDgQWBBQbLeCiJn8Nujh+7AaBgQ8SdExaTTCBkQYDVR0jBIGJMIGG
gBRp/zDsHzSaZzprINLff/UFBO35HKFjpGEwXzELMAkGA1UEBhMCREUxEDAOBgNV
BAgTB0hhbWJ1cmcxFzAVBgNVBAoTDk9wZW5PZmZpY2Uub3JnMRQwEgYDVQQLEwtE
ZXZlbG9wbWVudDEPMA0GA1UEAxMGUm9vdCAzggkAlW/w4yu+dvkwDwYDVR0TAQH/
BAUwAwEB/zANBgkqhkiG9w0BAQUFAAOBgQBvrFOdFm6V7Zdg7ciolqskxR7V1yaY
+7Wq79qkkWqCVewhoggkxwynWAwGaT0EfQjxC3dBrRwTwr0XyZ7/32Rpi1jxvEC9
z+RXKbxek4RhVkzmwTosbnHqXWfAVL5PLyeoWY0plLrGbP/tJT0L+pPJRfTVoz2+
ivGdxJLVXNJ3fA==
-----END CERTIFICATE-----
