Certificate:
    Data:
        Version: 3 (0x2)
        Serial Number: 4096 (0x1000)
        Signature Algorithm: sha1WithRSAEncryption
        Issuer: C=DE, ST=Hamburg, O=OpenOffice.org, OU=Development, CN=Root 1
        Validity
            Not Before: Nov 18 15:07:13 2009 GMT
            Not After : Nov 12 15:07:13 2034 GMT
        Subject: C=DE, ST=Hamburg, O=OpenOffice.org, OU=Development, CN=Sub CA 1 Root 1
        Subject Public Key Info:
            Public Key Algorithm: rsaEncryption
            RSA Public Key: (1024 bit)
                Modulus (1024 bit):
                    00:d9:3a:8d:64:95:87:76:76:e8:61:c3:e9:65:f4:
                    a6:b7:0c:77:0e:4b:10:e8:14:a3:e1:84:69:7c:8e:
                    97:d2:7d:01:ad:b2:dc:5c:cd:c6:91:a1:f3:93:7c:
                    54:36:64:e3:ca:22:ca:00:cb:c6:91:ab:6b:26:88:
                    69:60:9a:61:d7:59:17:db:93:7d:09:36:da:28:cb:
                    ec:2d:a4:26:bb:1a:42:20:b8:08:b2:0f:b9:77:a6:
                    80:71:cf:13:f5:37:a2:90:4d:ab:e8:97:49:d2:80:
                    94:8f:b1:9d:5a:b4:9f:de:ff:fa:b6:d6:e0:45:5f:
                    cc:d4:10:1e:32:46:7b:ba:55
                Exponent: 65537 (0x10001)
        X509v3 extensions:
            X509v3 Subject Key Identifier: 
                37:71:74:81:44:DD:1E:B1:60:96:41:B7:4B:38:C4:B7:79:1B:CF:8A
            X509v3 Authority Key Identifier: 
                keyid:0F:FA:C6:EB:DF:CE:B8:BB:B3:A9:3E:42:A6:BA:EC:D2:93:CA:47:A4
                DirName:/C=DE/ST=Hamburg/O=OpenOffice.org/OU=Development/CN=Root 1
                serial:95:B0:05:2B:ED:C2:39:2D

            X509v3 Basic Constraints: critical
                CA:TRUE
    Signature Algorithm: sha1WithRSAEncryption
        18:f6:02:5e:75:04:5f:eb:3b:07:41:85:c0:9e:08:29:58:3d:
        b5:6f:c2:aa:24:0d:93:1d:17:fc:be:d6:43:ac:43:d7:4d:a0:
        2c:40:fd:3d:d5:7e:91:46:25:49:62:ba:e9:7f:67:c2:fc:8a:
        c3:a0:37:bf:ec:f9:54:bf:61:10:35:dd:5b:bb:da:7c:70:54:
        32:13:b9:ae:7d:ea:a5:7d:aa:55:3e:ef:0a:ef:12:fd:c3:f6:
        e5:25:98:97:34:02:64:fd:88:79:b3:e2:f4:fc:ff:e7:d3:98:
        f1:d9:d5:18:d9:b4:62:ae:99:88:61:2e:ff:02:6a:13:35:fe:
        37:c7
-----BEGIN CERTIFICATE-----
MIIDBjCCAm+gAwIBAgICEAAwDQYJKoZIhvcNAQEFBQAwXzELMAkGA1UEBhMCREUx
EDAOBgNVBAgTB0hhbWJ1cmcxFzAVBgNVBAoTDk9wZW5PZmZpY2Uub3JnMRQwEgYD
VQQLEwtEZXZlbG9wbWVudDEPMA0GA1UEAxMGUm9vdCAxMB4XDTA5MTExODE1MDcx
M1oXDTM0MTExMjE1MDcxM1owaDELMAkGA1UEBhMCREUxEDAOBgNVBAgTB0hhbWJ1
cmcxFzAVBgNVBAoTDk9wZW5PZmZpY2Uub3JnMRQwEgYDVQQLEwtEZXZlbG9wbWVu
dDEYMBYGA1UEAxMPU3ViIENBIDEgUm9vdCAxMIGfMA0GCSqGSIb3DQEBAQUAA4GN
ADCBiQKBgQDZOo1klYd2duhhw+ll9Ka3DHcOSxDoFKPhhGl8jpfSfQGtstxczcaR
ofOTfFQ2ZOPKIsoAy8aRq2smiGlgmmHXWRfbk30JNtooy+wtpCa7GkIguAiyD7l3
poBxzxP1N6KQTavol0nSgJSPsZ1atJ/e//q21uBFX8zUEB4yRnu6VQIDAQABo4HH
MIHEMB0GA1UdDgQWBBQ3cXSBRN0esWCWQbdLOMS3eRvPijCBkQYDVR0jBIGJMIGG
gBQP+sbr3864u7OpPkKmuuzSk8pHpKFjpGEwXzELMAkGA1UEBhMCREUxEDAOBgNV
BAgTB0hhbWJ1cmcxFzAVBgNVBAoTDk9wZW5PZmZpY2Uub3JnMRQwEgYDVQQLEwtE
ZXZlbG9wbWVudDEPMA0GA1UEAxMGUm9vdCAxggkAlbAFK+3COS0wDwYDVR0TAQH/
BAUwAwEB/zANBgkqhkiG9w0BAQUFAAOBgQAY9gJedQRf6zsHQYXAnggpWD21b8Kq
JA2THRf8vtZDrEPXTaAsQP091X6RRiVJYrrpf2fC/IrDoDe/7PlUv2EQNd1bu9p8
cFQyE7mufeqlfapVPu8K7xL9w/blJZiXNAJk/Yh5s+L0/P/n05jx2dUY2bRirpmI
YS7/AmoTNf43xw==
-----END CERTIFICATE-----
