Certificate:
    Data:
        Version: 3 (0x2)
        Serial Number: 4096 (0x1000)
        Signature Algorithm: sha1WithRSAEncryption
        Issuer: C=DE, ST=Hamburg, O=OpenOffice.org, OU=Development, CN=Root 11
        Validity
            Not Before: Jan 14 16:11:10 2010 GMT
            Not After : Jan  8 16:11:10 2035 GMT
        Subject: C=DE, ST=Hamburg, O=OpenOffice.org, OU=Development, CN=\xC5\xB9\xC5\xBA\xC5\xBB\xC5\xBC\xC5\xBD\xC5\xBE \xEF\xAC\xB3 j\xCE\xAC\xCE\xAD\xCE\xAE
        Subject Public Key Info:
            Public Key Algorithm: rsaEncryption
            RSA Public Key: (1024 bit)
                Modulus (1024 bit):
                    00:c5:8e:23:dc:00:60:ab:13:ac:00:15:c8:2f:13:
                    04:4a:05:15:38:1e:ea:43:cb:68:8e:e3:08:cc:a4:
                    bb:ef:78:3e:4a:d3:3c:89:50:95:c4:16:6f:a4:89:
                    97:4a:07:ad:17:b4:96:1e:54:87:82:ed:22:a4:15:
                    f7:cf:09:83:b7:4d:ee:75:70:8c:71:5a:b8:e7:4d:
                    27:b4:f8:eb:19:67:8f:58:3f:4c:5f:b3:ca:aa:bd:
                    5b:95:d7:b4:ba:d4:bc:0e:69:01:52:b9:8a:2d:55:
                    83:9e:4d:3f:01:0c:f1:d7:bd:c9:82:54:d2:71:d6:
                    51:9c:55:4c:a3:82:43:35:2f
                Exponent: 65537 (0x10001)
        X509v3 extensions:
            X509v3 Key Usage: 
                Digital Signature, Non Repudiation, Key Encipherment
            X509v3 Subject Key Identifier: 
                CA:DF:DA:1A:F7:9C:D8:41:19:34:69:EA:67:74:68:CA:A3:24:0F:9F
            X509v3 Authority Key Identifier: 
                keyid:E8:6A:BB:C2:90:EA:6C:70:22:3E:F6:F6:48:1B:03:E6:BE:B7:A6:55

    Signature Algorithm: sha1WithRSAEncryption
        28:3a:db:4b:fd:15:4c:bb:ea:74:b4:53:4f:75:2a:92:3c:78:
        b6:86:aa:39:bc:b0:67:3a:5a:00:f1:1e:74:5c:c7:2b:19:4f:
        f4:c0:4d:ff:01:4c:b2:0f:b5:49:14:c3:9a:96:ce:61:b6:c7:
        37:82:44:75:76:fc:bd:5d:74:f9:22:ae:f2:36:cb:20:b7:e3:
        c8:c8:01:ae:d5:01:f6:5e:b4:cb:ca:76:fe:72:98:f3:0a:c3:
        ac:76:fa:41:67:b4:5c:92:67:fa:ca:17:02:80:00:d8:b6:d5:
        01:03:89:25:97:96:60:86:0c:0b:d8:64:94:c9:77:43:28:06:
        f9:4e
-----BEGIN CERTIFICATE-----
MIIClzCCAgCgAwIBAgICEAAwDQYJKoZIhvcNAQEFBQAwYDELMAkGA1UEBhMCREUx
EDAOBgNVBAgTB0hhbWJ1cmcxFzAVBgNVBAoTDk9wZW5PZmZpY2Uub3JnMRQwEgYD
VQQLEwtEZXZlbG9wbWVudDEQMA4GA1UEAxMHUm9vdCAxMTAeFw0xMDAxMTQxNjEx
MTBaFw0zNTAxMDgxNjExMTBaMHExCzAJBgNVBAYTAkRFMRAwDgYDVQQIEwdIYW1i
dXJnMRcwFQYDVQQKEw5PcGVuT2ZmaWNlLm9yZzEUMBIGA1UECxMLRGV2ZWxvcG1l
bnQxITAfBgNVBAMUGMW5xbrFu8W8xb3FviDvrLMgas6szq3OrjCBnzANBgkqhkiG
9w0BAQEFAAOBjQAwgYkCgYEAxY4j3ABgqxOsABXILxMESgUVOB7qQ8tojuMIzKS7
73g+StM8iVCVxBZvpImXSgetF7SWHlSHgu0ipBX3zwmDt03udXCMcVq4500ntPjr
GWePWD9MX7PKqr1blde0utS8DmkBUrmKLVWDnk0/AQzx173JglTScdZRnFVMo4JD
NS8CAwEAAaNPME0wCwYDVR0PBAQDAgXgMB0GA1UdDgQWBBTK39oa95zYQRk0aepn
dGjKoyQPnzAfBgNVHSMEGDAWgBToarvCkOpscCI+9vZIGwPmvremVTANBgkqhkiG
9w0BAQUFAAOBgQAoOttL/RVMu+p0tFNPdSqSPHi2hqo5vLBnOloA8R50XMcrGU/0
wE3/AUyyD7VJFMOals5htsc3gkR1dvy9XXT5Iq7yNssgt+PIyAGu1QH2XrTLynb+
cpjzCsOsdvpBZ7Rckmf6yhcCgADYttUBA4kll5ZghgwL2GSUyXdDKAb5Tg==
-----END CERTIFICATE-----
