Certificate:
    Data:
        Version: 3 (0x2)
        Serial Number: 4098 (0x1002)
        Signature Algorithm: sha1WithRSAEncryption
        Issuer: C=DE, ST=Hamburg, O=OpenOffice.org, OU=Development, CN=Root 11
        Validity
            Not Before: Jan 18 14:44:17 2010 GMT
            Not After : Jan 12 14:44:17 2035 GMT
        Subject: C=DE, ST=Hamburg, O=OpenOffice.org, OU=Development, CN=\x04\x0F\x04\x10\x04\x11\x04\x12\x04\x13\x04\x14
        Subject Public Key Info:
            Public Key Algorithm: rsaEncryption
            RSA Public Key: (1024 bit)
                Modulus (1024 bit):
                    00:b4:d3:fd:a0:56:2b:d9:72:66:e3:fc:4b:5b:70:
                    fb:9c:23:10:0b:b9:8a:c4:d1:dd:1d:37:cd:20:f4:
                    9d:52:c3:8f:80:14:26:c4:3e:dc:3d:af:38:86:70:
                    2f:e1:54:1c:a6:5e:b6:6a:2d:73:b4:2d:88:7c:ed:
                    eb:63:34:bf:ef:d0:a8:e0:00:ea:f0:24:50:68:3b:
                    ff:03:4a:22:e0:eb:5c:a4:e8:65:e4:c7:e7:38:e9:
                    ce:0c:44:3e:36:08:fe:82:d8:50:b9:13:43:3b:17:
                    77:09:ef:7b:cc:9f:b4:7d:5d:f7:ab:8e:ab:c0:11:
                    bc:7a:07:ea:98:51:c0:27:1f
                Exponent: 65537 (0x10001)
        X509v3 extensions:
            X509v3 Key Usage: 
                Digital Signature, Non Repudiation, Key Encipherment
            X509v3 Subject Key Identifier: 
                49:1F:9A:43:D9:43:B9:89:0C:00:D9:90:C8:BC:9C:67:CD:8D:3E:C6
            X509v3 Authority Key Identifier: 
                keyid:E8:6A:BB:C2:90:EA:6C:70:22:3E:F6:F6:48:1B:03:E6:BE:B7:A6:55

            X509v3 Subject Alternative Name: 
                DirName:/CN=User 2 Root 11
    Signature Algorithm: sha1WithRSAEncryption
        03:bc:24:ba:71:8b:4f:cc:3a:60:5a:04:13:15:4e:b0:79:e7:
        94:6c:9b:3b:4c:5d:d8:26:75:f5:94:04:71:5a:3e:b9:8c:5f:
        b5:3d:e0:bb:8b:64:71:8f:0d:9a:99:b8:ff:ec:14:c0:c0:ca:
        63:5a:4e:1d:75:77:7a:2f:fb:12:90:25:44:ba:d8:2f:03:39:
        86:ef:88:4a:cc:69:79:0b:ff:a6:66:83:45:08:17:0b:0c:05:
        f9:25:7c:6a:30:05:b3:61:df:1a:fe:2c:ca:49:e9:73:bd:b3:
        11:6b:bf:04:b0:a6:46:76:21:40:95:5c:78:b3:aa:4b:fd:03:
        ee:51
-----BEGIN CERTIFICATE-----
MIICszCCAhygAwIBAgICEAIwDQYJKoZIhvcNAQEFBQAwYDELMAkGA1UEBhMCREUx
EDAOBgNVBAgTB0hhbWJ1cmcxFzAVBgNVBAoTDk9wZW5PZmZpY2Uub3JnMRQwEgYD
VQQLEwtEZXZlbG9wbWVudDEQMA4GA1UEAxMHUm9vdCAxMTAeFw0xMDAxMTgxNDQ0
MTdaFw0zNTAxMTIxNDQ0MTdaMGUxCzAJBgNVBAYTAkRFMRAwDgYDVQQIEwdIYW1i
dXJnMRcwFQYDVQQKEw5PcGVuT2ZmaWNlLm9yZzEUMBIGA1UECxMLRGV2ZWxvcG1l
bnQxFTATBgNVBAMeDAQPBBAEEQQSBBMEFDCBnzANBgkqhkiG9w0BAQEFAAOBjQAw
gYkCgYEAtNP9oFYr2XJm4/xLW3D7nCMQC7mKxNHdHTfNIPSdUsOPgBQmxD7cPa84
hnAv4VQcpl62ai1ztC2IfO3rYzS/79Co4ADq8CRQaDv/A0oi4OtcpOhl5MfnOOnO
DEQ+Ngj+gthQuRNDOxd3Ce97zJ+0fV33q46rwBG8egfqmFHAJx8CAwEAAaN3MHUw
CwYDVR0PBAQDAgXgMB0GA1UdDgQWBBRJH5pD2UO5iQwA2ZDIvJxnzY0+xjAfBgNV
HSMEGDAWgBToarvCkOpscCI+9vZIGwPmvremVTAmBgNVHREEHzAdpBswGTEXMBUG
A1UEAxMOVXNlciAyIFJvb3QgMTEwDQYJKoZIhvcNAQEFBQADgYEAA7wkunGLT8w6
YFoEExVOsHnnlGybO0xd2CZ19ZQEcVo+uYxftT3gu4tkcY8Nmpm4/+wUwMDKY1pO
HXV3ei/7EpAlRLrYLwM5hu+ISsxpeQv/pmaDRQgXCwwF+SV8ajAFs2HfGv4syknp
c72zEWu/BLCmRnYhQJVceLOqS/0D7lE=
-----END CERTIFICATE-----
