Certificate:
    Data:
        Version: 3 (0x2)
        Serial Number: 4100 (0x1004)
        Signature Algorithm: sha1WithRSAEncryption
        Issuer: C=DE, ST=Hamburg, O=OpenOffice.org, OU=Development, CN=Root 11
        Validity
            Not Before: Jan 18 16:00:38 2010 GMT
            Not After : Jan 12 16:00:38 2035 GMT
        Subject: C=DE, ST=Hamburg, O=OpenOffice.org, OU=Development, CN=\x00"\x00e\x00n\x00c\x00l\x00o\x00s\x00i\x00n\x00g\x00 \x00q\x00u\x00o\x00t\x00e\x00s\x00"
        Subject Public Key Info:
            Public Key Algorithm: rsaEncryption
            RSA Public Key: (1024 bit)
                Modulus (1024 bit):
                    00:c9:ff:37:16:4d:7a:ad:59:bd:f2:c4:dc:4f:79:
                    6a:f6:21:c7:ef:cd:af:f1:39:34:24:92:f4:46:d3:
                    8b:43:31:55:11:3e:22:2b:85:19:38:ed:0b:35:3c:
                    73:fc:b9:17:e8:73:99:21:a2:20:30:b4:e9:11:c6:
                    7a:61:fa:fa:fe:eb:c8:30:c4:73:5f:77:f2:fc:42:
                    b7:10:29:ac:9e:8a:c2:df:25:9b:44:17:05:a3:39:
                    d9:1b:58:62:fb:2c:86:07:f7:f0:28:7b:5a:38:1b:
                    6a:de:88:fb:ad:32:f4:53:e2:a1:c5:0f:68:db:64:
                    ae:39:2a:5e:02:d0:b5:38:07
                Exponent: 65537 (0x10001)
        X509v3 extensions:
            X509v3 Key Usage: 
                Digital Signature, Non Repudiation, Key Encipherment
            X509v3 Subject Key Identifier: 
                86:2F:46:D0:A9:F9:3F:22:BD:57:83:51:35:F9:67:11:A2:00:AB:33
            X509v3 Authority Key Identifier: 
                keyid:E8:6A:BB:C2:90:EA:6C:70:22:3E:F6:F6:48:1B:03:E6:BE:B7:A6:55

            X509v3 Subject Alternative Name: 
                DirName:/CN=User 3 Root 11
    Signature Algorithm: sha1WithRSAEncryption
        bb:f6:61:ae:30:94:3a:4a:d6:d5:cb:b5:50:bb:ca:0e:ab:9f:
        09:e9:78:d4:2f:20:fe:18:4e:d8:61:db:97:28:a9:d9:dc:e5:
        06:f8:6c:41:c2:5a:95:53:47:7e:a7:73:c9:45:4f:6b:30:fc:
        fd:17:9a:7b:a9:d8:27:57:a9:fd:8d:e7:7e:4b:3e:98:11:42:
        00:39:1a:55:4b:3d:a5:de:75:3c:43:5a:33:10:d3:cf:4e:04:
        0a:71:d4:93:2b:0b:2b:15:82:7b:04:46:9b:50:da:18:84:66:
        31:75:36:5b:09:eb:82:5d:7d:e1:35:a3:a4:6c:b2:ac:c8:fa:
        bd:5f
-----BEGIN CERTIFICATE-----
MIICyzCCAjSgAwIBAgICEAQwDQYJKoZIhvcNAQEFBQAwYDELMAkGA1UEBhMCREUx
EDAOBgNVBAgTB0hhbWJ1cmcxFzAVBgNVBAoTDk9wZW5PZmZpY2Uub3JnMRQwEgYD
VQQLEwtEZXZlbG9wbWVudDEQMA4GA1UEAxMHUm9vdCAxMTAeFw0xMDAxMTgxNjAw
MzhaFw0zNTAxMTIxNjAwMzhaMH0xCzAJBgNVBAYTAkRFMRAwDgYDVQQIEwdIYW1i
dXJnMRcwFQYDVQQKEw5PcGVuT2ZmaWNlLm9yZzEUMBIGA1UECxMLRGV2ZWxvcG1l
bnQxLTArBgNVBAMeJAAiAGUAbgBjAGwAbwBzAGkAbgBnACAAcQB1AG8AdABlAHMA
IjCBnzANBgkqhkiG9w0BAQEFAAOBjQAwgYkCgYEAyf83Fk16rVm98sTcT3lq9iHH
782v8Tk0JJL0RtOLQzFVET4iK4UZOO0LNTxz/LkX6HOZIaIgMLTpEcZ6Yfr6/uvI
MMRzX3fy/EK3ECmsnorC3yWbRBcFoznZG1hi+yyGB/fwKHtaOBtq3oj7rTL0U+Kh
xQ9o22SuOSpeAtC1OAcCAwEAAaN3MHUwCwYDVR0PBAQDAgXgMB0GA1UdDgQWBBSG
L0bQqfk/Ir1Xg1E1+WcRogCrMzAfBgNVHSMEGDAWgBToarvCkOpscCI+9vZIGwPm
vremVTAmBgNVHREEHzAdpBswGTEXMBUGA1UEAxMOVXNlciAzIFJvb3QgMTEwDQYJ
KoZIhvcNAQEFBQADgYEAu/ZhrjCUOkrW1cu1ULvKDqufCel41C8g/hhO2GHblyip
2dzlBvhsQcJalVNHfqdzyUVPazD8/Reae6nYJ1ep/Y3nfks+mBFCADkaVUs9pd51
PENaMxDTz04ECnHUkysLKxWCewRGm1DaGIRmMXU2Wwnrgl194TWjpGyyrMj6vV8=
-----END CERTIFICATE-----
