Certificate:
    Data:
        Version: 3 (0x2)
        Serial Number: 4101 (0x1005)
        Signature Algorithm: sha1WithRSAEncryption
        Issuer: C=DE, ST=Hamburg, O=OpenOffice.org, OU=Development, CN=Root 11
        Validity
            Not Before: Jan 18 16:05:47 2010 GMT
            Not After : Jan 12 16:05:47 2035 GMT
        Subject: C=DE, ST=Hamburg, O=OpenOffice.org, OU=Development, CN=\x00"\x00"\x00d\x00o\x00u\x00b\x00l\x00e\x00 \x00e\x00n\x00c\x00l\x00o\x00s\x00i\x00n\x00g\x00 \x00q\x00u\x00o\x00t\x00e\x00s\x00"\x00"
        Subject Public Key Info:
            Public Key Algorithm: rsaEncryption
            RSA Public Key: (1024 bit)
                Modulus (1024 bit):
                    00:de:4d:31:93:c5:1b:7c:2b:85:86:da:89:3d:06:
                    6f:6d:44:a5:de:6c:6a:06:28:b0:96:7b:40:34:01:
                    af:e4:b1:f4:93:f1:25:78:b0:43:ea:92:2a:87:60:
                    e8:be:7e:c9:b6:02:f8:14:93:1b:b8:5f:cb:2c:24:
                    e2:80:24:f0:5c:6d:77:f2:dc:ef:90:d6:d1:78:22:
                    53:f0:7f:45:ad:f2:1a:9d:25:08:13:c8:62:6b:9e:
                    88:79:3d:9e:b4:0a:05:11:79:7d:a1:b2:46:89:f3:
                    45:ce:f3:22:2e:17:ab:e1:a9:b1:04:93:3b:f3:ca:
                    e6:60:c0:fd:91:7f:34:80:65
                Exponent: 65537 (0x10001)
        X509v3 extensions:
            X509v3 Key Usage: 
                Digital Signature, Non Repudiation, Key Encipherment
            X509v3 Subject Key Identifier: 
                C1:6E:6A:FB:5A:B1:0C:67:07:C8:7E:F1:8D:86:F6:D0:27:56:6D:73
            X509v3 Authority Key Identifier: 
                keyid:E8:6A:BB:C2:90:EA:6C:70:22:3E:F6:F6:48:1B:03:E6:BE:B7:A6:55

            X509v3 Subject Alternative Name: 
                DirName:/CN=User 4 Root 11
    Signature Algorithm: sha1WithRSAEncryption
        61:72:4b:33:1d:60:91:08:19:4f:ff:ec:8e:9e:83:71:d7:00:
        96:0a:b5:82:b7:8c:a6:3f:70:64:36:ac:25:a7:f1:a9:83:f1:
        63:f8:29:06:fa:58:86:8a:fd:25:9e:77:38:dd:c7:3b:cd:68:
        91:8e:f4:57:42:c9:6b:88:87:ec:24:57:38:84:fb:c0:d9:bc:
        6c:1c:6e:9d:9d:b9:da:cc:7e:fe:f9:bd:29:be:14:26:6f:63:
        1f:6f:6a:f1:dd:fd:d2:03:69:f2:36:e1:35:e0:57:72:d5:e3:
        09:ee:6a:08:45:b4:73:e9:d1:18:c2:38:1d:86:53:53:6d:bf:
        f0:1e
-----BEGIN CERTIFICATE-----
MIIC3jCCAkegAwIBAgICEAUwDQYJKoZIhvcNAQEFBQAwYDELMAkGA1UEBhMCREUx
EDAOBgNVBAgTB0hhbWJ1cmcxFzAVBgNVBAoTDk9wZW5PZmZpY2Uub3JnMRQwEgYD
VQQLEwtEZXZlbG9wbWVudDEQMA4GA1UEAxMHUm9vdCAxMTAeFw0xMDAxMTgxNjA1
NDdaFw0zNTAxMTIxNjA1NDdaMIGPMQswCQYDVQQGEwJERTEQMA4GA1UECBMHSGFt
YnVyZzEXMBUGA1UEChMOT3Blbk9mZmljZS5vcmcxFDASBgNVBAsTC0RldmVsb3Bt
ZW50MT8wPQYDVQQDHjYAIgAiAGQAbwB1AGIAbABlACAAZQBuAGMAbABvAHMAaQBu
AGcAIABxAHUAbwB0AGUAcwAiACIwgZ8wDQYJKoZIhvcNAQEBBQADgY0AMIGJAoGB
AN5NMZPFG3wrhYbaiT0Gb21Epd5sagYosJZ7QDQBr+Sx9JPxJXiwQ+qSKodg6L5+
ybYC+BSTG7hfyywk4oAk8Fxtd/Lc75DW0XgiU/B/Ra3yGp0lCBPIYmueiHk9nrQK
BRF5faGyRonzRc7zIi4Xq+GpsQSTO/PK5mDA/ZF/NIBlAgMBAAGjdzB1MAsGA1Ud
DwQEAwIF4DAdBgNVHQ4EFgQUwW5q+1qxDGcHyH7xjYb20CdWbXMwHwYDVR0jBBgw
FoAU6Gq7wpDqbHAiPvb2SBsD5r63plUwJgYDVR0RBB8wHaQbMBkxFzAVBgNVBAMT
DlVzZXIgNCBSb290IDExMA0GCSqGSIb3DQEBBQUAA4GBAGFySzMdYJEIGU//7I6e
g3HXAJYKtYK3jKY/cGQ2rCWn8amD8WP4KQb6WIaK/SWedzjdxzvNaJGO9FdCyWuI
h+wkVziE+8DZvGwcbp2dudrMfv75vSm+FCZvYx9vavHd/dIDafI24TXgV3LV4wnu
aghFtHPp0RjCOB2GU1Ntv/Ae
-----END CERTIFICATE-----
