Certificate:
    Data:
        Version: 3 (0x2)
        Serial Number: 4102 (0x1006)
        Signature Algorithm: sha1WithRSAEncryption
        Issuer: C=DE, ST=Hamburg, O=OpenOffice.org, OU=Development, CN=Root 11
        Validity
            Not Before: Jan 18 16:09:21 2010 GMT
            Not After : Jan 12 16:09:21 2035 GMT
        Subject: C=DE, ST=Hamburg, O=OpenOffice.org, OU=Development, CN=\x00"\x00"\x00t\x00w\x00o\x00 \x00s\x00t\x00a\x00r\x00t\x00i\x00n\x00g\x00 \x00o\x00n\x00e\x00 \x00e\x00n\x00d\x00i\x00n\x00g\x00 \x00q\x00u\x00o\x00t\x00e\x00"
        Subject Public Key Info:
            Public Key Algorithm: rsaEncryption
            RSA Public Key: (1024 bit)
                Modulus (1024 bit):
                    00:d1:a4:91:c7:28:84:f8:54:63:09:1f:bc:2e:4e:
                    a3:be:54:01:42:2e:f7:ef:4f:b8:46:a9:35:b1:b3:
                    29:0e:8b:f7:b5:fa:b7:71:5b:33:03:ac:e6:b5:f6:
                    ba:f5:ba:21:72:ed:7d:ea:f0:f1:2c:55:2a:a9:c6:
                    d8:54:ef:12:f0:f5:37:ca:57:b2:3c:ce:7c:5a:57:
                    86:68:a2:51:82:80:bd:58:a5:04:1c:e8:cf:f6:5b:
                    4e:d2:6a:79:63:eb:ac:52:7c:61:8c:fe:0a:6b:b2:
                    f6:16:9c:94:ae:a6:f6:69:b9:d5:0b:26:0d:01:7f:
                    62:d2:58:c2:02:53:25:63:0d
                Exponent: 65537 (0x10001)
        X509v3 extensions:
            X509v3 Key Usage: 
                Digital Signature, Non Repudiation, Key Encipherment
            X509v3 Subject Key Identifier: 
                45:DF:D7:35:D1:13:E4:8F:E3:0D:E3:7E:A9:9A:5D:56:00:64:4E:43
            X509v3 Authority Key Identifier: 
                keyid:E8:6A:BB:C2:90:EA:6C:70:22:3E:F6:F6:48:1B:03:E6:BE:B7:A6:55

            X509v3 Subject Alternative Name: 
                DirName:/CN=User 5 Root 11
    Signature Algorithm: sha1WithRSAEncryption
        9d:bd:dc:dc:8e:a8:e8:e4:15:cb:14:c1:6a:ab:d8:ab:e6:e5:
        4f:f5:a8:8b:2c:ab:80:e2:31:f9:89:d8:12:ba:9c:4f:b3:f5:
        bb:7e:ee:8b:df:58:d3:b2:ee:f8:c5:46:c3:5d:2e:a9:35:d0:
        7a:1e:80:18:14:4d:78:6e:f1:c8:9a:51:db:86:3e:2c:04:4a:
        0a:2f:f1:7a:01:e3:1b:31:d7:1d:f1:32:c4:04:db:b9:7e:c4:
        fd:b0:c1:41:3f:8a:b3:88:4f:4a:9c:a6:38:11:2a:4a:0f:8b:
        d0:9a:8a:2c:33:fe:7f:42:b5:93:8d:54:df:de:2b:b1:08:5c:
        d9:0d
-----BEGIN CERTIFICATE-----
MIIC6DCCAlGgAwIBAgICEAYwDQYJKoZIhvcNAQEFBQAwYDELMAkGA1UEBhMCREUx
EDAOBgNVBAgTB0hhbWJ1cmcxFzAVBgNVBAoTDk9wZW5PZmZpY2Uub3JnMRQwEgYD
VQQLEwtEZXZlbG9wbWVudDEQMA4GA1UEAxMHUm9vdCAxMTAeFw0xMDAxMTgxNjA5
MjFaFw0zNTAxMTIxNjA5MjFaMIGZMQswCQYDVQQGEwJERTEQMA4GA1UECBMHSGFt
YnVyZzEXMBUGA1UEChMOT3Blbk9mZmljZS5vcmcxFDASBgNVBAsTC0RldmVsb3Bt
ZW50MUkwRwYDVQQDHkAAIgAiAHQAdwBvACAAcwB0AGEAcgB0AGkAbgBnACAAbwBu
AGUAIABlAG4AZABpAG4AZwAgAHEAdQBvAHQAZQAiMIGfMA0GCSqGSIb3DQEBAQUA
A4GNADCBiQKBgQDRpJHHKIT4VGMJH7wuTqO+VAFCLvfvT7hGqTWxsykOi/e1+rdx
WzMDrOa19rr1uiFy7X3q8PEsVSqpxthU7xLw9TfKV7I8znxaV4ZoolGCgL1YpQQc
6M/2W07Sanlj66xSfGGM/gprsvYWnJSupvZpudULJg0Bf2LSWMICUyVjDQIDAQAB
o3cwdTALBgNVHQ8EBAMCBeAwHQYDVR0OBBYEFEXf1zXRE+SP4w3jfqmaXVYAZE5D
MB8GA1UdIwQYMBaAFOhqu8KQ6mxwIj729kgbA+a+t6ZVMCYGA1UdEQQfMB2kGzAZ
MRcwFQYDVQQDEw5Vc2VyIDUgUm9vdCAxMTANBgkqhkiG9w0BAQUFAAOBgQCdvdzc
jqjo5BXLFMFqq9ir5uVP9aiLLKuA4jH5idgSupxPs/W7fu6L31jTsu74xUbDXS6p
NdB6HoAYFE14bvHImlHbhj4sBEoKL/F6AeMbMdcd8TLEBNu5fsT9sMFBP4qziE9K
nKY4ESpKD4vQmoosM/5/QrWTjVTf3iuxCFzZDQ==
-----END CERTIFICATE-----
