Certificate:
    Data:
        Version: 3 (0x2)
        Serial Number: 4103 (0x1007)
        Signature Algorithm: sha1WithRSAEncryption
        Issuer: C=DE, ST=Hamburg, O=OpenOffice.org, OU=Development, CN=Root 11
        Validity
            Not Before: Jan 18 16:11:53 2010 GMT
            Not After : Jan 12 16:11:53 2035 GMT
        Subject: C=DE, ST=Hamburg, O=OpenOffice.org, OU=Development, CN=\x00"\x00s\x00t\x00a\x00r\x00t\x00i\x00n\x00g\x00 \x00q\x00u\x00o\x00t\x00e
        Subject Public Key Info:
            Public Key Algorithm: rsaEncryption
            RSA Public Key: (1024 bit)
                Modulus (1024 bit):
                    00:d1:99:9c:20:2e:65:ee:0f:ce:cb:8a:d8:70:c8:
                    04:3c:ac:2f:14:7c:6c:8f:5e:95:36:f8:53:74:5b:
                    88:bf:a1:43:73:04:ab:3a:42:b4:7c:2c:3c:3b:63:
                    7e:ef:82:c5:bb:b1:28:9b:8b:b7:29:72:3d:30:08:
                    e9:a2:d7:4b:08:e2:2e:e6:d4:9f:75:29:31:23:be:
                    b4:30:5d:94:30:41:38:a1:d5:34:bc:69:f5:d8:8d:
                    c6:08:cc:28:4a:92:22:2b:19:89:f5:ad:7c:49:89:
                    b3:63:c6:e5:6c:86:d7:62:05:1b:97:db:2d:fb:c2:
                    47:e5:51:a6:f0:50:6f:e3:53
                Exponent: 65537 (0x10001)
        X509v3 extensions:
            X509v3 Key Usage: 
                Digital Signature, Non Repudiation, Key Encipherment
            X509v3 Subject Key Identifier: 
                5F:DA:34:F6:6F:BA:9E:12:99:DC:02:2A:4C:3E:8C:0D:14:A1:9B:2B
            X509v3 Authority Key Identifier: 
                keyid:E8:6A:BB:C2:90:EA:6C:70:22:3E:F6:F6:48:1B:03:E6:BE:B7:A6:55

            X509v3 Subject Alternative Name: 
                DirName:/CN=User 6 Root 11
    Signature Algorithm: sha1WithRSAEncryption
        24:af:11:b6:1a:5c:d1:bf:70:93:85:c0:2e:10:96:4d:b7:ad:
        4e:d7:c4:7e:87:a1:3b:20:d7:bf:04:07:cc:91:13:0c:ad:66:
        08:d6:2e:b6:d0:aa:d0:45:0e:c0:92:3d:7c:a6:82:19:04:3c:
        9a:b3:5e:e8:fe:9e:5c:d6:17:75:73:e3:3c:64:0c:ae:5d:92:
        2a:eb:0e:ef:04:f5:ce:a5:7f:1f:2f:1d:05:a0:70:f4:24:80:
        c3:38:35:2d:e5:ac:a7:11:4a:3e:a2:b2:d1:14:91:ba:b0:d8:
        5f:be:80:8a:34:2c:72:fb:00:47:88:47:9e:34:65:12:ad:9f:
        ff:99
-----BEGIN CERTIFICATE-----
MIICxTCCAi6gAwIBAgICEAcwDQYJKoZIhvcNAQEFBQAwYDELMAkGA1UEBhMCREUx
EDAOBgNVBAgTB0hhbWJ1cmcxFzAVBgNVBAoTDk9wZW5PZmZpY2Uub3JnMRQwEgYD
VQQLEwtEZXZlbG9wbWVudDEQMA4GA1UEAxMHUm9vdCAxMTAeFw0xMDAxMTgxNjEx
NTNaFw0zNTAxMTIxNjExNTNaMHcxCzAJBgNVBAYTAkRFMRAwDgYDVQQIEwdIYW1i
dXJnMRcwFQYDVQQKEw5PcGVuT2ZmaWNlLm9yZzEUMBIGA1UECxMLRGV2ZWxvcG1l
bnQxJzAlBgNVBAMeHgAiAHMAdABhAHIAdABpAG4AZwAgAHEAdQBvAHQAZTCBnzAN
BgkqhkiG9w0BAQEFAAOBjQAwgYkCgYEA0ZmcIC5l7g/Oy4rYcMgEPKwvFHxsj16V
NvhTdFuIv6FDcwSrOkK0fCw8O2N+74LFu7Eom4u3KXI9MAjpotdLCOIu5tSfdSkx
I760MF2UMEE4odU0vGn12I3GCMwoSpIiKxmJ9a18SYmzY8blbIbXYgUbl9st+8JH
5VGm8FBv41MCAwEAAaN3MHUwCwYDVR0PBAQDAgXgMB0GA1UdDgQWBBRf2jT2b7qe
EpncAipMPowNFKGbKzAfBgNVHSMEGDAWgBToarvCkOpscCI+9vZIGwPmvremVTAm
BgNVHREEHzAdpBswGTEXMBUGA1UEAxMOVXNlciA2IFJvb3QgMTEwDQYJKoZIhvcN
AQEFBQADgYEAJK8Rthpc0b9wk4XALhCWTbetTtfEfoehOyDXvwQHzJETDK1mCNYu
ttCq0EUOwJI9fKaCGQQ8mrNe6P6eXNYXdXPjPGQMrl2SKusO7wT1zqV/Hy8dBaBw
9CSAwzg1LeWspxFKPqKy0RSRurDYX76AijQscvsAR4hHnjRlEq2f/5k=
-----END CERTIFICATE-----
