Certificate:
    Data:
        Version: 3 (0x2)
        Serial Number: 4104 (0x1008)
        Signature Algorithm: sha1WithRSAEncryption
        Issuer: C=DE, ST=Hamburg, O=OpenOffice.org, OU=Development, CN=Root 11
        Validity
            Not Before: Jan 18 16:14:05 2010 GMT
            Not After : Jan 12 16:14:05 2035 GMT
        Subject: C=DE, ST=Hamburg, O=OpenOffice.org, OU=Development, CN=\x00e\x00n\x00d\x00i\x00n\x00g\x00 \x00q\x00u\x00o\x00t\x00e\x00"
        Subject Public Key Info:
            Public Key Algorithm: rsaEncryption
            RSA Public Key: (1024 bit)
                Modulus (1024 bit):
                    00:a6:a8:3f:60:a7:9a:3b:20:c9:2c:8c:4f:cd:11:
                    1f:0d:a9:2a:2c:eb:12:80:0c:55:8a:4d:06:ef:b2:
                    5f:2e:47:be:0d:10:22:8a:15:57:29:4a:90:63:f9:
                    1c:13:85:47:c7:c9:b9:76:09:10:a9:b1:94:5c:8d:
                    c9:f4:01:26:43:e4:d4:98:d6:00:1a:d4:cd:2a:d1:
                    cd:7e:4c:4e:ab:18:78:5a:fb:b2:ec:a3:87:a1:0e:
                    84:3f:70:cf:ca:02:24:c8:d7:1b:83:a3:ac:a5:f0:
                    10:c5:de:b7:a2:6c:0b:0c:9d:ab:32:a3:1a:c9:ae:
                    9b:48:a8:65:cd:50:db:0b:cf
                Exponent: 65537 (0x10001)
        X509v3 extensions:
            X509v3 Key Usage: 
                Digital Signature, Non Repudiation, Key Encipherment
            X509v3 Subject Key Identifier: 
                91:32:56:26:62:63:A1:32:B0:BC:D0:91:F1:D8:F2:94:CB:10:F1:91
            X509v3 Authority Key Identifier: 
                keyid:E8:6A:BB:C2:90:EA:6C:70:22:3E:F6:F6:48:1B:03:E6:BE:B7:A6:55

            X509v3 Subject Alternative Name: 
                DirName:/CN=User 7 Root 11
    Signature Algorithm: sha1WithRSAEncryption
        4c:d5:2f:ab:fb:83:f8:11:c9:d2:df:aa:dc:e9:b8:38:2e:53:
        e1:3a:5b:bb:0a:bf:72:f7:47:b5:57:de:82:8a:e6:bb:7d:62:
        af:1b:9c:8e:4a:f5:cf:0b:ac:e9:06:16:ca:59:f1:7f:d7:45:
        c0:88:84:ee:f4:c7:8b:e0:39:aa:c7:b7:95:b9:fe:a2:4a:3a:
        41:df:d0:02:bf:6f:54:30:9a:9a:0a:a6:04:5f:f4:17:52:d6:
        c2:39:43:5e:b9:a3:86:0f:3d:ad:eb:a3:81:f4:cc:90:29:17:
        dc:46:5e:6b:9c:f6:70:0f:b2:0f:dc:0f:9c:9f:09:6c:fa:31:
        6c:01
-----BEGIN CERTIFICATE-----
MIICwTCCAiqgAwIBAgICEAgwDQYJKoZIhvcNAQEFBQAwYDELMAkGA1UEBhMCREUx
EDAOBgNVBAgTB0hhbWJ1cmcxFzAVBgNVBAoTDk9wZW5PZmZpY2Uub3JnMRQwEgYD
VQQLEwtEZXZlbG9wbWVudDEQMA4GA1UEAxMHUm9vdCAxMTAeFw0xMDAxMTgxNjE0
MDVaFw0zNTAxMTIxNjE0MDVaMHMxCzAJBgNVBAYTAkRFMRAwDgYDVQQIEwdIYW1i
dXJnMRcwFQYDVQQKEw5PcGVuT2ZmaWNlLm9yZzEUMBIGA1UECxMLRGV2ZWxvcG1l
bnQxIzAhBgNVBAMeGgBlAG4AZABpAG4AZwAgAHEAdQBvAHQAZQAiMIGfMA0GCSqG
SIb3DQEBAQUAA4GNADCBiQKBgQCmqD9gp5o7IMksjE/NER8NqSos6xKADFWKTQbv
sl8uR74NECKKFVcpSpBj+RwThUfHybl2CRCpsZRcjcn0ASZD5NSY1gAa1M0q0c1+
TE6rGHha+7Lso4ehDoQ/cM/KAiTI1xuDo6yl8BDF3reibAsMnasyoxrJrptIqGXN
UNsLzwIDAQABo3cwdTALBgNVHQ8EBAMCBeAwHQYDVR0OBBYEFJEyViZiY6EysLzQ
kfHY8pTLEPGRMB8GA1UdIwQYMBaAFOhqu8KQ6mxwIj729kgbA+a+t6ZVMCYGA1Ud
EQQfMB2kGzAZMRcwFQYDVQQDEw5Vc2VyIDcgUm9vdCAxMTANBgkqhkiG9w0BAQUF
AAOBgQBM1S+r+4P4EcnS36rc6bg4LlPhOlu7Cr9y90e1V96Ciua7fWKvG5yOSvXP
C6zpBhbKWfF/10XAiITu9MeL4Dmqx7eVuf6iSjpB39ACv29UMJqaCqYEX/QXUtbC
OUNeuaOGDz2t66OB9MyQKRfcRl5rnPZwD7IP3A+cnwls+jFsAQ==
-----END CERTIFICATE-----
