Certificate:
    Data:
        Version: 3 (0x2)
        Serial Number: 4105 (0x1009)
        Signature Algorithm: sha1WithRSAEncryption
        Issuer: C=DE, ST=Hamburg, O=OpenOffice.org, OU=Development, CN=Root 11
        Validity
            Not Before: Jan 18 16:16:31 2010 GMT
            Not After : Jan 12 16:16:31 2035 GMT
        Subject: C=DE, ST=Hamburg, O=OpenOffice.org, OU=Development, CN=\x00m\x00i\x00d\x00d\x00l\x00e\x00 \x00"\x00q\x00u\x00o\x00t\x00e
        Subject Public Key Info:
            Public Key Algorithm: rsaEncryption
            RSA Public Key: (1024 bit)
                Modulus (1024 bit):
                    00:b4:3b:c7:b0:6c:b5:f2:b3:a5:79:89:54:de:af:
                    03:3c:0e:c9:57:15:8e:73:2a:48:83:18:59:ce:b4:
                    12:fb:5c:92:28:69:75:18:f9:0f:24:15:95:38:b2:
                    4c:81:07:90:97:3b:d7:3a:ab:a6:92:5a:9f:5a:1f:
                    fe:14:ac:4d:b5:5e:6a:a6:0f:98:55:08:07:09:07:
                    a5:fb:79:9e:a0:2d:73:99:92:ad:6e:bc:75:36:d0:
                    b5:f1:1c:91:3a:d4:49:8a:60:1e:a7:01:2f:bc:d9:
                    cd:b4:f4:70:b4:38:d1:3c:d3:ee:00:df:b3:83:45:
                    63:5c:5d:28:47:bc:b1:b9:57
                Exponent: 65537 (0x10001)
        X509v3 extensions:
            X509v3 Key Usage: 
                Digital Signature, Non Repudiation, Key Encipherment
            X509v3 Subject Key Identifier: 
                D6:18:38:7B:14:4B:D6:72:42:A9:53:E2:1D:BE:81:88:26:DB:0A:06
            X509v3 Authority Key Identifier: 
                keyid:E8:6A:BB:C2:90:EA:6C:70:22:3E:F6:F6:48:1B:03:E6:BE:B7:A6:55

            X509v3 Subject Alternative Name: 
                DirName:/CN=User 8 Root 11
    Signature Algorithm: sha1WithRSAEncryption
        98:f3:ac:db:7b:a0:00:d2:58:be:74:21:ff:09:29:4c:0c:1a:
        7a:1f:dd:e2:f3:f4:9a:52:5d:da:ac:10:30:f9:b8:93:10:60:
        46:bf:48:47:bd:af:87:a1:d9:c6:46:81:b3:0d:a4:f8:ba:ca:
        17:7c:f2:f9:46:03:62:7f:32:6b:f0:7c:75:a4:05:44:cb:10:
        42:36:ce:12:c0:b9:e5:5f:e0:7b:c6:c8:39:5c:0c:50:30:a0:
        f6:fe:e1:a2:e6:00:b3:fc:86:56:11:66:d8:41:81:e3:4e:15:
        e5:68:9d:1c:b0:c4:4f:ab:86:75:55:fa:39:58:3f:7c:68:03:
        e0:76
-----BEGIN CERTIFICATE-----
MIICwTCCAiqgAwIBAgICEAkwDQYJKoZIhvcNAQEFBQAwYDELMAkGA1UEBhMCREUx
EDAOBgNVBAgTB0hhbWJ1cmcxFzAVBgNVBAoTDk9wZW5PZmZpY2Uub3JnMRQwEgYD
VQQLEwtEZXZlbG9wbWVudDEQMA4GA1UEAxMHUm9vdCAxMTAeFw0xMDAxMTgxNjE2
MzFaFw0zNTAxMTIxNjE2MzFaMHMxCzAJBgNVBAYTAkRFMRAwDgYDVQQIEwdIYW1i
dXJnMRcwFQYDVQQKEw5PcGVuT2ZmaWNlLm9yZzEUMBIGA1UECxMLRGV2ZWxvcG1l
bnQxIzAhBgNVBAMeGgBtAGkAZABkAGwAZQAgACIAcQB1AG8AdABlMIGfMA0GCSqG
SIb3DQEBAQUAA4GNADCBiQKBgQC0O8ewbLXys6V5iVTerwM8DslXFY5zKkiDGFnO
tBL7XJIoaXUY+Q8kFZU4skyBB5CXO9c6q6aSWp9aH/4UrE21XmqmD5hVCAcJB6X7
eZ6gLXOZkq1uvHU20LXxHJE61EmKYB6nAS+82c209HC0ONE80+4A37ODRWNcXShH
vLG5VwIDAQABo3cwdTALBgNVHQ8EBAMCBeAwHQYDVR0OBBYEFNYYOHsUS9ZyQqlT
4h2+gYgm2woGMB8GA1UdIwQYMBaAFOhqu8KQ6mxwIj729kgbA+a+t6ZVMCYGA1Ud
EQQfMB2kGzAZMRcwFQYDVQQDEw5Vc2VyIDggUm9vdCAxMTANBgkqhkiG9w0BAQUF
AAOBgQCY86zbe6AA0li+dCH/CSlMDBp6H93i8/SaUl3arBAw+biTEGBGv0hHva+H
odnGRoGzDaT4usoXfPL5RgNifzJr8Hx1pAVEyxBCNs4SwLnlX+B7xsg5XAxQMKD2
/uGi5gCz/IZWEWbYQYHjThXlaJ0csMRPq4Z1Vfo5WD98aAPgdg==
-----END CERTIFICATE-----
