Certificate:
    Data:
        Version: 3 (0x2)
        Serial Number: 4106 (0x100a)
        Signature Algorithm: sha1WithRSAEncryption
        Issuer: C=DE, ST=Hamburg, O=OpenOffice.org, OU=Development, CN=Root 11
        Validity
            Not Before: Jan 18 16:18:57 2010 GMT
            Not After : Jan 12 16:18:57 2035 GMT
        Subject: C=DE, ST=Hamburg, O=OpenOffice.org, OU=Development, CN=\x00d\x00o\x00u\x00b\x00l\x00e\x00 \x00"\x00"\x00m\x00i\x00d\x00d\x00l\x00e\x00 \x00q\x00u\x00o\x00t\x00e
        Subject Public Key Info:
            Public Key Algorithm: rsaEncryption
            RSA Public Key: (1024 bit)
                Modulus (1024 bit):
                    00:e5:3f:d4:e1:d6:26:2a:c9:40:1d:34:3c:1e:e8:
                    f4:54:67:6b:6c:a5:b7:fe:04:bb:cb:0e:c0:2d:26:
                    61:c1:81:80:9d:da:1b:fd:d3:7a:7a:57:78:c5:f6:
                    e6:4b:ad:2d:a2:8d:49:b3:ac:18:ca:1c:25:67:44:
                    7c:8e:b5:ab:ec:f7:a8:da:b7:37:ed:77:76:b2:8f:
                    bb:15:b2:e3:45:5f:b2:2a:aa:27:b7:f1:bc:37:8f:
                    b7:b4:c5:ff:45:fd:67:04:25:47:2c:1a:a7:63:1e:
                    97:f6:ac:d7:39:cf:ef:24:63:a1:87:9b:36:97:92:
                    fa:d9:4d:a9:fa:dd:c9:fb:75
                Exponent: 65537 (0x10001)
        X509v3 extensions:
            X509v3 Key Usage: 
                Digital Signature, Non Repudiation, Key Encipherment
            X509v3 Subject Key Identifier: 
                62:F1:43:E3:B1:7B:98:0D:69:A4:8F:CF:32:F7:6D:E6:88:D6:23:90
            X509v3 Authority Key Identifier: 
                keyid:E8:6A:BB:C2:90:EA:6C:70:22:3E:F6:F6:48:1B:03:E6:BE:B7:A6:55

            X509v3 Subject Alternative Name: 
                DirName:/CN=User 9 Root 11
    Signature Algorithm: sha1WithRSAEncryption
        ab:46:88:13:e8:02:63:4e:f2:a0:5a:48:7e:35:a4:c2:f8:55:
        33:cb:ef:45:55:30:81:a1:9e:c2:c7:43:cd:19:23:1f:df:3f:
        8b:b8:7e:69:5e:98:06:b1:47:dd:e5:05:e2:3a:19:cf:af:e3:
        dd:7b:75:e5:53:b0:bc:4e:58:40:bf:3b:d2:9c:7f:9e:b1:66:
        f8:3f:58:c4:5f:ab:be:1f:03:fb:89:47:a4:25:8a:1e:10:e0:
        20:33:70:07:13:92:32:e1:bf:92:6a:d5:89:03:2c:ad:e1:85:
        8c:b3:1d:ee:0c:35:70:2f:aa:e5:e0:77:97:b0:9b:a3:0d:22:
        6f:dc
-----BEGIN CERTIFICATE-----
MIIC0jCCAjugAwIBAgICEAowDQYJKoZIhvcNAQEFBQAwYDELMAkGA1UEBhMCREUx
EDAOBgNVBAgTB0hhbWJ1cmcxFzAVBgNVBAoTDk9wZW5PZmZpY2Uub3JnMRQwEgYD
VQQLEwtEZXZlbG9wbWVudDEQMA4GA1UEAxMHUm9vdCAxMTAeFw0xMDAxMTgxNjE4
NTdaFw0zNTAxMTIxNjE4NTdaMIGDMQswCQYDVQQGEwJERTEQMA4GA1UECBMHSGFt
YnVyZzEXMBUGA1UEChMOT3Blbk9mZmljZS5vcmcxFDASBgNVBAsTC0RldmVsb3Bt
ZW50MTMwMQYDVQQDHioAZABvAHUAYgBsAGUAIAAiACIAbQBpAGQAZABsAGUAIABx
AHUAbwB0AGUwgZ8wDQYJKoZIhvcNAQEBBQADgY0AMIGJAoGBAOU/1OHWJirJQB00
PB7o9FRna2ylt/4Eu8sOwC0mYcGBgJ3aG/3TenpXeMX25kutLaKNSbOsGMocJWdE
fI61q+z3qNq3N+13drKPuxWy40VfsiqqJ7fxvDePt7TF/0X9ZwQlRywap2Mel/as
1znP7yRjoYebNpeS+tlNqfrdyft1AgMBAAGjdzB1MAsGA1UdDwQEAwIF4DAdBgNV
HQ4EFgQUYvFD47F7mA1ppI/PMvdt5ojWI5AwHwYDVR0jBBgwFoAU6Gq7wpDqbHAi
Pvb2SBsD5r63plUwJgYDVR0RBB8wHaQbMBkxFzAVBgNVBAMTDlVzZXIgOSBSb290
IDExMA0GCSqGSIb3DQEBBQUAA4GBAKtGiBPoAmNO8qBaSH41pML4VTPL70VVMIGh
nsLHQ80ZIx/fP4u4fmlemAaxR93lBeI6Gc+v4917deVTsLxOWEC/O9Kcf56xZvg/
WMRfq74fA/uJR6Qlih4Q4CAzcAcTkjLhv5Jq1YkDLK3hhYyzHe4MNXAvquXgd5ew
m6MNIm/c
-----END CERTIFICATE-----
