Certificate:
    Data:
        Version: 3 (0x2)
        Serial Number: 4107 (0x100b)
        Signature Algorithm: sha1WithRSAEncryption
        Issuer: C=DE, ST=Hamburg, O=OpenOffice.org, OU=Development, CN=Root 11
        Validity
            Not Before: Jan 19 09:02:37 2010 GMT
            Not After : Jan 13 09:02:37 2035 GMT
        Subject: C=DE, ST=Hamburg, O=OpenOffice.org, OU=Development, CN=\x00p\x00a\x00r\x00t\x00i\x00a\x00l\x00l\x00y\x00 \x00"\x00e\x00n\x00c\x00l\x00o\x00s\x00i\x00n\x00g\x00 \x00q\x00u\x00o\x00t\x00e\x00"
        Subject Public Key Info:
            Public Key Algorithm: rsaEncryption
            RSA Public Key: (1024 bit)
                Modulus (1024 bit):
                    00:ae:9f:8e:b8:88:8e:ed:53:aa:2a:2c:ed:f1:6c:
                    99:47:9f:ab:8b:4e:8e:d8:2e:c2:78:2c:54:f9:29:
                    14:27:b9:6a:3c:33:3f:06:51:ba:76:15:0a:16:60:
                    db:f2:f0:db:af:5b:38:be:18:42:b4:31:02:ba:6f:
                    19:00:57:be:d0:f3:7c:6b:34:36:e8:7c:45:77:0d:
                    f5:d0:7c:0e:23:64:7c:59:02:5c:54:15:71:82:be:
                    98:3f:c9:2d:f0:9e:d5:f0:32:02:44:61:5b:2f:71:
                    16:13:9a:b3:2b:28:ff:d5:d8:3d:00:9c:eb:ec:b7:
                    04:e2:b6:15:42:45:e5:ef:3f
                Exponent: 65537 (0x10001)
        X509v3 extensions:
            X509v3 Key Usage: 
                Digital Signature, Non Repudiation, Key Encipherment
            X509v3 Subject Key Identifier: 
                8C:2C:B6:8B:82:43:DC:41:EC:AC:D4:75:E8:DA:D8:3F:A9:A0:F5:31
            X509v3 Authority Key Identifier: 
                keyid:E8:6A:BB:C2:90:EA:6C:70:22:3E:F6:F6:48:1B:03:E6:BE:B7:A6:55

            X509v3 Subject Alternative Name: 
                DirName:/CN=User 10 Root 11
    Signature Algorithm: sha1WithRSAEncryption
        48:a6:51:46:5b:44:a5:be:18:ed:8f:d4:c6:d2:3c:86:8f:e7:
        e5:f4:a2:5d:51:aa:00:9b:bc:d8:b1:d3:f4:24:a0:a1:0d:80:
        2e:7e:62:26:ee:8c:4b:bd:79:0c:39:bd:6e:af:db:92:b6:03:
        b1:b0:49:95:a7:59:28:54:30:33:fc:7e:2f:0f:a2:ce:90:27:
        29:b9:d8:3f:99:36:e9:81:9f:f5:fa:cb:f9:f2:05:b5:48:60:
        4d:50:4d:1e:ba:45:fd:f1:99:84:a6:79:0b:6b:76:eb:73:9d:
        5c:47:27:be:0d:23:0b:97:cc:9d:5a:80:fa:9b:ff:66:e7:37:
        60:a4
-----BEGIN CERTIFICATE-----
MIIC3zCCAkigAwIBAgICEAswDQYJKoZIhvcNAQEFBQAwYDELMAkGA1UEBhMCREUx
EDAOBgNVBAgTB0hhbWJ1cmcxFzAVBgNVBAoTDk9wZW5PZmZpY2Uub3JnMRQwEgYD
VQQLEwtEZXZlbG9wbWVudDEQMA4GA1UEAxMHUm9vdCAxMTAeFw0xMDAxMTkwOTAy
MzdaFw0zNTAxMTMwOTAyMzdaMIGPMQswCQYDVQQGEwJERTEQMA4GA1UECBMHSGFt
YnVyZzEXMBUGA1UEChMOT3Blbk9mZmljZS5vcmcxFDASBgNVBAsTC0RldmVsb3Bt
ZW50MT8wPQYDVQQDHjYAcABhAHIAdABpAGEAbABsAHkAIAAiAGUAbgBjAGwAbwBz
AGkAbgBnACAAcQB1AG8AdABlACIwgZ8wDQYJKoZIhvcNAQEBBQADgY0AMIGJAoGB
AK6fjriIju1Tqios7fFsmUefq4tOjtguwngsVPkpFCe5ajwzPwZRunYVChZg2/Lw
269bOL4YQrQxArpvGQBXvtDzfGs0Nuh8RXcN9dB8DiNkfFkCXFQVcYK+mD/JLfCe
1fAyAkRhWy9xFhOasyso/9XYPQCc6+y3BOK2FUJF5e8/AgMBAAGjeDB2MAsGA1Ud
DwQEAwIF4DAdBgNVHQ4EFgQUjCy2i4JD3EHsrNR16NrYP6mg9TEwHwYDVR0jBBgw
FoAU6Gq7wpDqbHAiPvb2SBsD5r63plUwJwYDVR0RBCAwHqQcMBoxGDAWBgNVBAMT
D1VzZXIgMTAgUm9vdCAxMTANBgkqhkiG9w0BAQUFAAOBgQBIplFGW0Slvhjtj9TG
0jyGj+fl9KJdUaoAm7zYsdP0JKChDYAufmIm7oxLvXkMOb1ur9uStgOxsEmVp1ko
VDAz/H4vD6LOkCcpudg/mTbpgZ/1+sv58gW1SGBNUE0eukX98ZmEpnkLa3brc51c
Rye+DSMLl8ydWoD6m/9m5zdgpA==
-----END CERTIFICATE-----
