Certificate:
    Data:
        Version: 3 (0x2)
        Serial Number: 4108 (0x100c)
        Signature Algorithm: sha1WithRSAEncryption
        Issuer: C=DE, ST=Hamburg, O=OpenOffice.org, OU=Development, CN=Root 11
        Validity
            Not Before: Jan 19 09:48:52 2010 GMT
            Not After : Jan 13 09:48:52 2035 GMT
        Subject: C=DE, ST=Hamburg, O=OpenOffice.org, OU=Development, CN=\x00"\x00U\x00s\x00e\x00r\x00 \x001\x001\x00,\x00 \x00s\x00t\x00a\x00r\x00t\x00i\x00n\x00g\x00 \x00q\x00u\x00o\x00t\x00e
        Subject Public Key Info:
            Public Key Algorithm: rsaEncryption
            RSA Public Key: (1024 bit)
                Modulus (1024 bit):
                    00:e2:8b:a9:94:06:b0:cb:e7:1b:a3:fd:7c:70:d1:
                    66:e6:2d:aa:c7:ec:2e:e3:08:c3:39:3f:48:47:fd:
                    09:67:2d:16:17:87:c0:e3:4d:c1:cc:6b:3f:c4:7b:
                    74:d5:71:70:d6:74:8a:a2:17:fd:39:78:f8:c7:b3:
                    42:54:ac:f7:07:d7:6f:55:da:03:15:11:e0:c2:d8:
                    95:d2:87:c3:9c:3d:94:96:9d:01:81:5d:61:43:aa:
                    4c:92:d5:68:aa:6c:73:88:52:7b:ee:9b:76:65:0d:
                    2a:ae:3d:83:71:41:44:8b:23:7d:a6:f9:3c:81:56:
                    6c:9b:52:96:87:c8:97:18:8d
                Exponent: 65537 (0x10001)
        X509v3 extensions:
            X509v3 Key Usage: 
                Digital Signature, Non Repudiation, Key Encipherment
            X509v3 Subject Key Identifier: 
                48:89:BE:3C:AA:C9:5A:38:6B:CA:FA:C8:B2:BB:F7:E1:44:4B:7B:08
            X509v3 Authority Key Identifier: 
                keyid:E8:6A:BB:C2:90:EA:6C:70:22:3E:F6:F6:48:1B:03:E6:BE:B7:A6:55

            X509v3 Subject Alternative Name: 
                DirName:/CN=User 11 Root 11
    Signature Algorithm: sha1WithRSAEncryption
        23:c9:5b:f5:9f:59:ff:97:0b:79:35:2d:32:db:b7:4b:b1:c9:
        2b:1e:cf:88:7b:b4:4e:f0:ed:13:a3:64:85:8f:d6:70:b5:ed:
        2a:57:92:a0:b4:14:96:48:7a:aa:a4:19:59:df:d9:a9:0f:86:
        a3:e5:ec:b5:67:ef:c3:ee:23:dd:c3:3e:24:86:6c:09:03:59:
        ab:93:d6:c7:0a:4c:ef:c5:4a:be:d6:ff:0f:2e:81:8e:18:d5:
        44:21:3a:0e:86:04:aa:86:8a:38:1e:d6:07:75:d0:08:be:ef:
        29:7d:d2:fc:85:8d:0c:d3:bd:ea:47:be:40:bb:fa:2f:29:fc:
        c6:d8
-----BEGIN CERTIFICATE-----
MIIC2TCCAkKgAwIBAgICEAwwDQYJKoZIhvcNAQEFBQAwYDELMAkGA1UEBhMCREUx
EDAOBgNVBAgTB0hhbWJ1cmcxFzAVBgNVBAoTDk9wZW5PZmZpY2Uub3JnMRQwEgYD
VQQLEwtEZXZlbG9wbWVudDEQMA4GA1UEAxMHUm9vdCAxMTAeFw0xMDAxMTkwOTQ4
NTJaFw0zNTAxMTMwOTQ4NTJaMIGJMQswCQYDVQQGEwJERTEQMA4GA1UECBMHSGFt
YnVyZzEXMBUGA1UEChMOT3Blbk9mZmljZS5vcmcxFDASBgNVBAsTC0RldmVsb3Bt
ZW50MTkwNwYDVQQDHjAAIgBVAHMAZQByACAAMQAxACwAIABzAHQAYQByAHQAaQBu
AGcAIABxAHUAbwB0AGUwgZ8wDQYJKoZIhvcNAQEBBQADgY0AMIGJAoGBAOKLqZQG
sMvnG6P9fHDRZuYtqsfsLuMIwzk/SEf9CWctFheHwONNwcxrP8R7dNVxcNZ0iqIX
/Tl4+MezQlSs9wfXb1XaAxUR4MLYldKHw5w9lJadAYFdYUOqTJLVaKpsc4hSe+6b
dmUNKq49g3FBRIsjfab5PIFWbJtSlofIlxiNAgMBAAGjeDB2MAsGA1UdDwQEAwIF
4DAdBgNVHQ4EFgQUSIm+PKrJWjhryvrIsrv34URLewgwHwYDVR0jBBgwFoAU6Gq7
wpDqbHAiPvb2SBsD5r63plUwJwYDVR0RBCAwHqQcMBoxGDAWBgNVBAMTD1VzZXIg
MTEgUm9vdCAxMTANBgkqhkiG9w0BAQUFAAOBgQAjyVv1n1n/lwt5NS0y27dLsckr
Hs+Ie7RO8O0To2SFj9Zwte0qV5KgtBSWSHqqpBlZ39mpD4aj5ey1Z+/D7iPdwz4k
hmwJA1mrk9bHCkzvxUq+1v8PLoGOGNVEIToOhgSqhoo4HtYHddAIvu8pfdL8hY0M
073qR75Au/ovKfzG2A==
-----END CERTIFICATE-----
