Certificate:
    Data:
        Version: 3 (0x2)
        Serial Number: 4110 (0x100e)
        Signature Algorithm: sha1WithRSAEncryption
        Issuer: C=DE, ST=Hamburg, O=OpenOffice.org, OU=Development, CN=Root 11
        Validity
            Not Before: Jan 19 09:53:08 2010 GMT
            Not After : Jan 13 09:53:08 2035 GMT
        Subject: C=DE, ST=Hamburg, O=OpenOffice.org, OU=Development, CN=\x00"\x00U\x00s\x00e\x00r\x00 \x001\x003\x00,\x00 \x00e\x00n\x00c\x00l\x00o\x00s\x00i\x00n\x00g\x00 \x00q\x00u\x00o\x00t\x00e\x00s\x00"
        Subject Public Key Info:
            Public Key Algorithm: rsaEncryption
            RSA Public Key: (1024 bit)
                Modulus (1024 bit):
                    00:e0:b2:b3:77:34:32:23:3c:45:ce:1f:5f:9a:60:
                    c5:59:af:2f:bf:73:8e:be:3d:88:8d:97:4f:fe:8a:
                    00:b9:71:7f:07:3a:1e:6a:5b:37:8a:ff:58:8f:f1:
                    b3:e5:0b:9d:35:58:57:6d:da:d1:15:cd:52:7f:e2:
                    15:25:16:d4:d6:1e:71:a6:f3:f7:c5:6d:01:64:fc:
                    20:d4:4e:6a:f2:f9:b9:2a:36:f8:ae:e6:17:a8:f9:
                    8e:7c:bb:75:e5:24:39:ad:4c:18:c8:bb:07:22:cd:
                    d1:a6:52:93:7f:24:5f:90:dd:0f:64:07:70:42:67:
                    39:9b:1f:ea:5e:bb:cd:df:ab
                Exponent: 65537 (0x10001)
        X509v3 extensions:
            X509v3 Key Usage: 
                Digital Signature, Non Repudiation, Key Encipherment
            X509v3 Subject Key Identifier: 
                75:49:D0:1F:A0:B3:A2:C6:F2:7F:CF:16:A3:4C:4B:DF:D6:4C:07:9D
            X509v3 Authority Key Identifier: 
                keyid:E8:6A:BB:C2:90:EA:6C:70:22:3E:F6:F6:48:1B:03:E6:BE:B7:A6:55

            X509v3 Subject Alternative Name: 
                DirName:/CN=User 13 Root 11
    Signature Algorithm: sha1WithRSAEncryption
        5d:60:60:06:aa:8a:2d:ee:20:2a:ee:fb:b5:99:8c:ed:d8:67:
        28:30:d8:26:a7:e0:1c:6e:5d:e1:4c:5e:c8:f9:02:e2:2e:c4:
        1e:58:e9:84:bc:d7:79:4e:d5:c5:ea:ba:74:aa:4e:30:9d:2b:
        98:c8:0b:fe:7f:eb:fb:e9:24:5f:f8:17:27:a9:ce:7c:ff:4b:
        88:15:3e:25:18:71:73:bf:b6:bf:c5:51:6b:1d:db:32:1d:ae:
        00:bf:ed:a5:65:99:16:43:8d:d2:6d:27:53:fc:65:9a:91:94:
        7b:44:c8:58:a1:f1:2b:95:86:0b:2d:2d:94:10:6f:5e:be:f8:
        7b:8e
-----BEGIN CERTIFICATE-----
MIIC3zCCAkigAwIBAgICEA4wDQYJKoZIhvcNAQEFBQAwYDELMAkGA1UEBhMCREUx
EDAOBgNVBAgTB0hhbWJ1cmcxFzAVBgNVBAoTDk9wZW5PZmZpY2Uub3JnMRQwEgYD
VQQLEwtEZXZlbG9wbWVudDEQMA4GA1UEAxMHUm9vdCAxMTAeFw0xMDAxMTkwOTUz
MDhaFw0zNTAxMTMwOTUzMDhaMIGPMQswCQYDVQQGEwJERTEQMA4GA1UECBMHSGFt
YnVyZzEXMBUGA1UEChMOT3Blbk9mZmljZS5vcmcxFDASBgNVBAsTC0RldmVsb3Bt
ZW50MT8wPQYDVQQDHjYAIgBVAHMAZQByACAAMQAzACwAIABlAG4AYwBsAG8AcwBp
AG4AZwAgAHEAdQBvAHQAZQBzACIwgZ8wDQYJKoZIhvcNAQEBBQADgY0AMIGJAoGB
AOCys3c0MiM8Rc4fX5pgxVmvL79zjr49iI2XT/6KALlxfwc6HmpbN4r/WI/xs+UL
nTVYV23a0RXNUn/iFSUW1NYecabz98VtAWT8INROavL5uSo2+K7mF6j5jny7deUk
Oa1MGMi7ByLN0aZSk38kX5DdD2QHcEJnOZsf6l67zd+rAgMBAAGjeDB2MAsGA1Ud
DwQEAwIF4DAdBgNVHQ4EFgQUdUnQH6Czosbyf88Wo0xL39ZMB50wHwYDVR0jBBgw
FoAU6Gq7wpDqbHAiPvb2SBsD5r63plUwJwYDVR0RBCAwHqQcMBoxGDAWBgNVBAMT
D1VzZXIgMTMgUm9vdCAxMTANBgkqhkiG9w0BAQUFAAOBgQBdYGAGqoot7iAq7vu1
mYzt2GcoMNgmp+Acbl3hTF7I+QLiLsQeWOmEvNd5TtXF6rp0qk4wnSuYyAv+f+v7
6SRf+Bcnqc58/0uIFT4lGHFzv7a/xVFrHdsyHa4Av+2lZZkWQ43SbSdT/GWakZR7
RMhYofErlYYLLS2UEG9evvh7jg==
-----END CERTIFICATE-----
