Certificate:
    Data:
        Version: 3 (0x2)
        Serial Number: 4111 (0x100f)
        Signature Algorithm: sha1WithRSAEncryption
        Issuer: C=DE, ST=Hamburg, O=OpenOffice.org, OU=Development, CN=Root 11
        Validity
            Not Before: Jan 19 09:55:02 2010 GMT
            Not After : Jan 13 09:55:02 2035 GMT
        Subject: C=DE, ST=Hamburg, O=OpenOffice.org, OU=Development, CN=\x00U\x00s\x00e\x00r\x00 \x001\x004\x00 \x00"\x00,\x00m\x00i\x00d\x00d\x00l\x00e\x00 \x00q\x00u\x00o\x00t\x00e\x00"
        Subject Public Key Info:
            Public Key Algorithm: rsaEncryption
            RSA Public Key: (1024 bit)
                Modulus (1024 bit):
                    00:d7:b7:68:39:6e:80:18:83:2e:d7:0a:e5:f1:3f:
                    27:80:68:59:a8:05:ac:7f:d9:6e:5d:7f:1c:58:86:
                    b7:74:b5:51:3d:64:09:4a:a0:ff:e7:10:0e:bc:8a:
                    f0:d1:54:18:0a:ed:68:0a:a2:33:e5:9f:f0:3d:7f:
                    24:9c:46:34:ba:45:8f:05:59:51:2d:fb:32:1d:79:
                    51:37:1a:4b:f8:6e:c5:49:c0:49:9e:ef:2b:ae:aa:
                    03:fa:ff:55:08:69:85:0d:b4:06:53:ee:20:4e:74:
                    6c:ca:b8:98:8d:64:8f:b5:99:a9:06:37:32:ca:ca:
                    eb:31:16:ce:97:e8:17:0d:9d
                Exponent: 65537 (0x10001)
        X509v3 extensions:
            X509v3 Key Usage: 
                Digital Signature, Non Repudiation, Key Encipherment
            X509v3 Subject Key Identifier: 
                A7:D8:65:FB:E9:A1:F6:A4:16:76:1C:2E:5B:F3:1B:8E:08:B1:1D:7F
            X509v3 Authority Key Identifier: 
                keyid:E8:6A:BB:C2:90:EA:6C:70:22:3E:F6:F6:48:1B:03:E6:BE:B7:A6:55

            X509v3 Subject Alternative Name: 
                DirName:/CN=User 14 Root 11
    Signature Algorithm: sha1WithRSAEncryption
        35:54:0f:d2:d3:ec:9e:a6:ea:e6:51:69:27:a3:f1:ae:ea:ef:
        f9:da:ca:2a:50:f1:9e:2a:7c:74:43:d6:7f:91:ad:5a:5c:e2:
        da:f3:cb:27:a2:78:99:75:0b:9e:e9:3a:bd:3e:31:14:6a:06:
        b7:3f:59:d1:0a:67:03:a4:32:63:cd:b1:b6:5c:68:bb:bb:e2:
        23:a6:ff:8e:55:e5:92:a6:a8:b3:87:3d:25:21:9c:2a:6f:ab:
        09:ad:f5:e6:e6:d8:37:62:f2:30:ac:51:da:f4:9c:1d:06:f6:
        f3:73:2f:6a:3b:7f:53:0d:c0:2e:ad:cc:6e:81:fe:ce:e3:53:
        0e:23
-----BEGIN CERTIFICATE-----
MIIC1zCCAkCgAwIBAgICEA8wDQYJKoZIhvcNAQEFBQAwYDELMAkGA1UEBhMCREUx
EDAOBgNVBAgTB0hhbWJ1cmcxFzAVBgNVBAoTDk9wZW5PZmZpY2Uub3JnMRQwEgYD
VQQLEwtEZXZlbG9wbWVudDEQMA4GA1UEAxMHUm9vdCAxMTAeFw0xMDAxMTkwOTU1
MDJaFw0zNTAxMTMwOTU1MDJaMIGHMQswCQYDVQQGEwJERTEQMA4GA1UECBMHSGFt
YnVyZzEXMBUGA1UEChMOT3Blbk9mZmljZS5vcmcxFDASBgNVBAsTC0RldmVsb3Bt
ZW50MTcwNQYDVQQDHi4AVQBzAGUAcgAgADEANAAgACIALABtAGkAZABkAGwAZQAg
AHEAdQBvAHQAZQAiMIGfMA0GCSqGSIb3DQEBAQUAA4GNADCBiQKBgQDXt2g5boAY
gy7XCuXxPyeAaFmoBax/2W5dfxxYhrd0tVE9ZAlKoP/nEA68ivDRVBgK7WgKojPl
n/A9fyScRjS6RY8FWVEt+zIdeVE3Gkv4bsVJwEme7yuuqgP6/1UIaYUNtAZT7iBO
dGzKuJiNZI+1makGNzLKyusxFs6X6BcNnQIDAQABo3gwdjALBgNVHQ8EBAMCBeAw
HQYDVR0OBBYEFKfYZfvpofakFnYcLlvzG44IsR1/MB8GA1UdIwQYMBaAFOhqu8KQ
6mxwIj729kgbA+a+t6ZVMCcGA1UdEQQgMB6kHDAaMRgwFgYDVQQDEw9Vc2VyIDE0
IFJvb3QgMTEwDQYJKoZIhvcNAQEFBQADgYEANVQP0tPsnqbq5lFpJ6Pxrurv+drK
KlDxnip8dEPWf5GtWlzi2vPLJ6J4mXULnuk6vT4xFGoGtz9Z0QpnA6QyY82xtlxo
u7viI6b/jlXlkqaos4c9JSGcKm+rCa315ubYN2LyMKxR2vScHQb283Mvajt/Uw3A
Lq3MboH+zuNTDiM=
-----END CERTIFICATE-----
