Certificate:
    Data:
        Version: 3 (0x2)
        Serial Number: 4112 (0x1010)
        Signature Algorithm: sha1WithRSAEncryption
        Issuer: C=DE, ST=Hamburg, O=OpenOffice.org, OU=Development, CN=Root 11
        Validity
            Not Before: Jan 19 09:57:52 2010 GMT
            Not After : Jan 13 09:57:52 2035 GMT
        Subject: C=DE, ST=Hamburg, O=OpenOffice.org, OU=Development, CN=\x00\\x00e\x00n\x00c\x00l\x00o\x00s\x00i\x00n\x00g\x00 \x00q\x00u\x00o\x00t\x00e\x00s\x00\
        Subject Public Key Info:
            Public Key Algorithm: rsaEncryption
            RSA Public Key: (1024 bit)
                Modulus (1024 bit):
                    00:a1:cc:00:2b:07:2b:e7:ac:80:29:cb:40:37:e3:
                    1f:a3:c5:13:86:16:63:6b:cc:b8:c1:aa:54:fd:57:
                    0f:de:4c:69:2f:e5:5f:f0:a9:bb:25:74:48:ee:36:
                    77:6b:08:b5:95:a9:00:aa:15:31:9e:d8:f6:25:53:
                    78:9d:bc:2b:8f:7a:19:32:12:8c:13:60:7d:76:1e:
                    4e:b1:e4:51:c7:43:c0:e6:ee:d9:61:df:85:90:a0:
                    95:3c:a2:81:83:3d:22:f6:8d:42:ee:69:fa:5c:ae:
                    1c:b5:52:02:fb:ec:a6:12:2f:bb:fb:6c:a8:61:95:
                    08:6c:d2:e5:1e:90:61:a6:27
                Exponent: 65537 (0x10001)
        X509v3 extensions:
            X509v3 Key Usage: 
                Digital Signature, Non Repudiation, Key Encipherment
            X509v3 Subject Key Identifier: 
                2F:C9:F6:94:E6:1E:91:13:CE:75:A1:17:FD:1D:93:7E:45:CE:4D:67
            X509v3 Authority Key Identifier: 
                keyid:E8:6A:BB:C2:90:EA:6C:70:22:3E:F6:F6:48:1B:03:E6:BE:B7:A6:55

            X509v3 Subject Alternative Name: 
                DirName:/CN=User 15 Root 11
    Signature Algorithm: sha1WithRSAEncryption
        19:d0:dc:4c:c8:59:f0:7a:14:f2:51:54:e5:9e:5a:b3:27:0b:
        d7:36:0f:74:38:07:26:65:1a:b5:94:1a:1f:b2:b7:3d:ee:b1:
        90:05:83:41:6a:98:5f:25:b4:cb:5c:49:12:24:35:d6:97:cf:
        50:2e:0a:17:41:0b:75:e9:6a:a4:fb:bb:c2:cc:c1:94:64:03:
        81:c4:25:d2:3f:3e:8f:d1:29:44:db:a9:3c:7f:0c:2c:6d:48:
        38:cb:8f:56:82:9c:d3:f3:f3:20:1f:45:19:8e:ea:91:9c:c1:
        25:cf:20:1d:bb:70:7e:b9:a0:c5:34:78:93:5f:2b:d9:fd:d5:
        de:ad
-----BEGIN CERTIFICATE-----
MIICzDCCAjWgAwIBAgICEBAwDQYJKoZIhvcNAQEFBQAwYDELMAkGA1UEBhMCREUx
EDAOBgNVBAgTB0hhbWJ1cmcxFzAVBgNVBAoTDk9wZW5PZmZpY2Uub3JnMRQwEgYD
VQQLEwtEZXZlbG9wbWVudDEQMA4GA1UEAxMHUm9vdCAxMTAeFw0xMDAxMTkwOTU3
NTJaFw0zNTAxMTMwOTU3NTJaMH0xCzAJBgNVBAYTAkRFMRAwDgYDVQQIEwdIYW1i
dXJnMRcwFQYDVQQKEw5PcGVuT2ZmaWNlLm9yZzEUMBIGA1UECxMLRGV2ZWxvcG1l
bnQxLTArBgNVBAMeJABcAGUAbgBjAGwAbwBzAGkAbgBnACAAcQB1AG8AdABlAHMA
XDCBnzANBgkqhkiG9w0BAQEFAAOBjQAwgYkCgYEAocwAKwcr56yAKctAN+Mfo8UT
hhZja8y4wapU/VcP3kxpL+Vf8Km7JXRI7jZ3awi1lakAqhUxntj2JVN4nbwrj3oZ
MhKME2B9dh5OseRRx0PA5u7ZYd+FkKCVPKKBgz0i9o1C7mn6XK4ctVIC++ymEi+7
+2yoYZUIbNLlHpBhpicCAwEAAaN4MHYwCwYDVR0PBAQDAgXgMB0GA1UdDgQWBBQv
yfaU5h6RE851oRf9HZN+Rc5NZzAfBgNVHSMEGDAWgBToarvCkOpscCI+9vZIGwPm
vremVTAnBgNVHREEIDAepBwwGjEYMBYGA1UEAxMPVXNlciAxNSBSb290IDExMA0G
CSqGSIb3DQEBBQUAA4GBABnQ3EzIWfB6FPJRVOWeWrMnC9c2D3Q4ByZlGrWUGh+y
tz3usZAFg0FqmF8ltMtcSRIkNdaXz1AuChdBC3XpaqT7u8LMwZRkA4HEJdI/Po/R
KUTbqTx/DCxtSDjLj1aCnNPz8yAfRRmO6pGcwSXPIB27cH65oMU0eJNfK9n91d6t
-----END CERTIFICATE-----
