Certificate:
    Data:
        Version: 3 (0x2)
        Serial Number: 4113 (0x1011)
        Signature Algorithm: sha1WithRSAEncryption
        Issuer: C=DE, ST=Hamburg, O=OpenOffice.org, OU=Development, CN=Root 11
        Validity
            Not Before: Jan 19 09:59:22 2010 GMT
            Not After : Jan 13 09:59:22 2035 GMT
        Subject: C=DE, ST=Hamburg, O=OpenOffice.org, OU=Development, CN=\x00\\x00\\x00d\x00o\x00u\x00b\x00l\x00e\x00 \x00e\x00n\x00c\x00l\x00o\x00s\x00i\x00n\x00g\x00 \x00q\x00u\x00o\x00t\x00e\x00s\x00\\x00\
        Subject Public Key Info:
            Public Key Algorithm: rsaEncryption
            RSA Public Key: (1024 bit)
                Modulus (1024 bit):
                    00:a4:e3:64:10:9f:0a:e4:35:bb:e3:e1:f0:28:86:
                    8a:f2:6e:d3:f8:44:ac:58:7b:f5:dd:1c:71:17:bf:
                    3e:14:29:55:f0:5c:c9:ed:36:c0:7f:e7:cc:7c:a3:
                    c4:9a:13:4f:7d:6c:b3:1e:ab:24:ba:1a:ff:48:96:
                    67:a5:ca:e5:75:30:24:70:3a:94:d2:92:db:29:2b:
                    69:1f:1d:a4:da:37:91:57:03:79:d7:0a:c7:a9:09:
                    14:a8:70:60:b5:a3:62:4f:b8:bf:0a:22:0a:9c:83:
                    3a:4d:1a:47:06:97:f1:4a:38:78:95:45:10:9e:44:
                    90:fb:6e:13:ba:3a:1b:b7:4b
                Exponent: 65537 (0x10001)
        X509v3 extensions:
            X509v3 Key Usage: 
                Digital Signature, Non Repudiation, Key Encipherment
            X509v3 Subject Key Identifier: 
                A5:32:FD:E7:0D:90:82:17:34:E1:AD:2A:48:5D:78:27:2B:C9:2A:B8
            X509v3 Authority Key Identifier: 
                keyid:E8:6A:BB:C2:90:EA:6C:70:22:3E:F6:F6:48:1B:03:E6:BE:B7:A6:55

            X509v3 Subject Alternative Name: 
                DirName:/CN=User 16 Root 11
    Signature Algorithm: sha1WithRSAEncryption
        96:ee:46:fc:41:4f:55:0d:bc:46:27:5a:3c:09:7c:17:6c:e3:
        9e:3a:85:eb:3b:e2:f7:a5:ab:b5:ae:aa:44:81:d7:b7:29:39:
        b8:20:40:1e:36:da:a8:03:8b:3a:96:c3:2e:ba:cd:81:b9:af:
        a0:a5:95:b0:3b:55:c1:85:9d:3d:c2:d0:7b:a4:d0:0e:16:7c:
        26:ba:85:e5:96:f0:f9:cc:28:c4:ed:83:e8:6f:30:a8:22:7a:
        7e:3b:99:d6:b2:3d:a2:90:1e:c9:9b:70:0a:af:04:d9:7c:46:
        52:e2:5a:d3:57:d6:18:a9:e9:55:ee:00:e8:10:a1:84:ed:ca:
        2b:bf
-----BEGIN CERTIFICATE-----
MIIC3zCCAkigAwIBAgICEBEwDQYJKoZIhvcNAQEFBQAwYDELMAkGA1UEBhMCREUx
EDAOBgNVBAgTB0hhbWJ1cmcxFzAVBgNVBAoTDk9wZW5PZmZpY2Uub3JnMRQwEgYD
VQQLEwtEZXZlbG9wbWVudDEQMA4GA1UEAxMHUm9vdCAxMTAeFw0xMDAxMTkwOTU5
MjJaFw0zNTAxMTMwOTU5MjJaMIGPMQswCQYDVQQGEwJERTEQMA4GA1UECBMHSGFt
YnVyZzEXMBUGA1UEChMOT3Blbk9mZmljZS5vcmcxFDASBgNVBAsTC0RldmVsb3Bt
ZW50MT8wPQYDVQQDHjYAXABcAGQAbwB1AGIAbABlACAAZQBuAGMAbABvAHMAaQBu
AGcAIABxAHUAbwB0AGUAcwBcAFwwgZ8wDQYJKoZIhvcNAQEBBQADgY0AMIGJAoGB
AKTjZBCfCuQ1u+Ph8CiGivJu0/hErFh79d0ccRe/PhQpVfBcye02wH/nzHyjxJoT
T31ssx6rJLoa/0iWZ6XK5XUwJHA6lNKS2ykraR8dpNo3kVcDedcKx6kJFKhwYLWj
Yk+4vwoiCpyDOk0aRwaX8Uo4eJVFEJ5EkPtuE7o6G7dLAgMBAAGjeDB2MAsGA1Ud
DwQEAwIF4DAdBgNVHQ4EFgQUpTL95w2Qghc04a0qSF14JyvJKrgwHwYDVR0jBBgw
FoAU6Gq7wpDqbHAiPvb2SBsD5r63plUwJwYDVR0RBCAwHqQcMBoxGDAWBgNVBAMT
D1VzZXIgMTYgUm9vdCAxMTANBgkqhkiG9w0BAQUFAAOBgQCW7kb8QU9VDbxGJ1o8
CXwXbOOeOoXrO+L3pau1rqpEgde3KTm4IEAeNtqoA4s6lsMuus2Bua+gpZWwO1XB
hZ09wtB7pNAOFnwmuoXllvD5zCjE7YPobzCoInp+O5nWsj2ikB7Jm3AKrwTZfEZS
4lrTV9YYqelV7gDoEKGE7corvw==
-----END CERTIFICATE-----
