Certificate:
    Data:
        Version: 3 (0x2)
        Serial Number: 4114 (0x1012)
        Signature Algorithm: sha1WithRSAEncryption
        Issuer: C=DE, ST=Hamburg, O=OpenOffice.org, OU=Development, CN=Root 11
        Validity
            Not Before: Jan 19 10:02:07 2010 GMT
            Not After : Jan 13 10:02:07 2035 GMT
        Subject: C=DE, ST=Hamburg, O=OpenOffice.org, OU=Development, CN=\x00\\x00\\x00t\x00w\x00o\x00 \x00s\x00t\x00a\x00r\x00t\x00i\x00n\x00g\x00 \x00o\x00n\x00e\x00 \x00e\x00n\x00d\x00i\x00n\x00g\x00 \x00q\x00u\x00o\x00t\x00e\x00\
        Subject Public Key Info:
            Public Key Algorithm: rsaEncryption
            RSA Public Key: (1024 bit)
                Modulus (1024 bit):
                    00:e9:8c:31:90:52:8d:ef:c6:6a:10:17:7d:37:a3:
                    ef:00:34:19:dd:a4:1a:f6:cc:37:b0:19:c8:9d:f6:
                    9f:f8:3d:15:c9:cf:73:ab:0a:42:f2:54:5b:cc:12:
                    fb:64:35:54:c9:50:36:18:6c:b6:b0:cf:d6:1e:30:
                    0b:0d:fa:f3:25:99:d7:49:20:dd:cc:04:d7:bb:07:
                    00:b9:b9:87:8c:75:e5:28:a6:74:a9:b4:96:36:b8:
                    15:62:84:0c:7a:a2:f3:07:9c:5c:8f:7a:22:3d:ba:
                    a4:06:69:f6:ce:d2:36:a0:62:e1:ae:67:aa:23:24:
                    ac:1d:53:ac:bf:b6:30:74:f7
                Exponent: 65537 (0x10001)
        X509v3 extensions:
            X509v3 Key Usage: 
                Digital Signature, Non Repudiation, Key Encipherment
            X509v3 Subject Key Identifier: 
                C0:28:3E:BA:44:88:99:A0:80:67:AA:3E:B6:D4:12:A7:35:DA:A6:BB
            X509v3 Authority Key Identifier: 
                keyid:E8:6A:BB:C2:90:EA:6C:70:22:3E:F6:F6:48:1B:03:E6:BE:B7:A6:55

            X509v3 Subject Alternative Name: 
                DirName:/CN=User 17 Root 11
    Signature Algorithm: sha1WithRSAEncryption
        06:5b:fb:65:55:34:ca:2c:1a:c2:2d:2a:97:1b:a1:68:f6:0c:
        13:18:03:44:f9:0d:37:a1:8c:b1:f7:bc:b7:74:a8:aa:c1:e7:
        36:e7:b9:e0:64:79:76:63:98:7b:1d:d8:80:8c:d9:26:61:a8:
        e7:07:96:60:e9:8a:24:78:cb:9c:f3:35:15:c9:d9:0c:2e:68:
        68:48:9c:df:6b:56:3f:aa:47:34:36:b0:ef:0e:d2:e0:ee:a9:
        a9:6a:27:93:60:27:5f:42:76:9c:e0:aa:74:6c:b9:aa:de:fe:
        86:98:5a:3d:73:c5:15:38:c8:ff:09:8e:ed:da:06:74:fb:67:
        92:51
-----BEGIN CERTIFICATE-----
MIIC6TCCAlKgAwIBAgICEBIwDQYJKoZIhvcNAQEFBQAwYDELMAkGA1UEBhMCREUx
EDAOBgNVBAgTB0hhbWJ1cmcxFzAVBgNVBAoTDk9wZW5PZmZpY2Uub3JnMRQwEgYD
VQQLEwtEZXZlbG9wbWVudDEQMA4GA1UEAxMHUm9vdCAxMTAeFw0xMDAxMTkxMDAy
MDdaFw0zNTAxMTMxMDAyMDdaMIGZMQswCQYDVQQGEwJERTEQMA4GA1UECBMHSGFt
YnVyZzEXMBUGA1UEChMOT3Blbk9mZmljZS5vcmcxFDASBgNVBAsTC0RldmVsb3Bt
ZW50MUkwRwYDVQQDHkAAXABcAHQAdwBvACAAcwB0AGEAcgB0AGkAbgBnACAAbwBu
AGUAIABlAG4AZABpAG4AZwAgAHEAdQBvAHQAZQBcMIGfMA0GCSqGSIb3DQEBAQUA
A4GNADCBiQKBgQDpjDGQUo3vxmoQF303o+8ANBndpBr2zDewGcid9p/4PRXJz3Or
CkLyVFvMEvtkNVTJUDYYbLawz9YeMAsN+vMlmddJIN3MBNe7BwC5uYeMdeUopnSp
tJY2uBVihAx6ovMHnFyPeiI9uqQGafbO0jagYuGuZ6ojJKwdU6y/tjB09wIDAQAB
o3gwdjALBgNVHQ8EBAMCBeAwHQYDVR0OBBYEFMAoPrpEiJmggGeqPrbUEqc12qa7
MB8GA1UdIwQYMBaAFOhqu8KQ6mxwIj729kgbA+a+t6ZVMCcGA1UdEQQgMB6kHDAa
MRgwFgYDVQQDEw9Vc2VyIDE3IFJvb3QgMTEwDQYJKoZIhvcNAQEFBQADgYEABlv7
ZVU0yiwawi0qlxuhaPYMExgDRPkNN6GMsfe8t3SoqsHnNue54GR5dmOYex3YgIzZ
JmGo5weWYOmKJHjLnPM1FcnZDC5oaEic32tWP6pHNDaw7w7S4O6pqWonk2AnX0J2
nOCqdGy5qt7+hphaPXPFFTjI/wmO7doGdPtnklE=
-----END CERTIFICATE-----
