Certificate:
    Data:
        Version: 3 (0x2)
        Serial Number: 4115 (0x1013)
        Signature Algorithm: sha1WithRSAEncryption
        Issuer: C=DE, ST=Hamburg, O=OpenOffice.org, OU=Development, CN=Root 11
        Validity
            Not Before: Jan 19 10:04:36 2010 GMT
            Not After : Jan 13 10:04:36 2035 GMT
        Subject: C=DE, ST=Hamburg, O=OpenOffice.org, OU=Development, CN=\x00\\x00s\x00t\x00a\x00r\x00t\x00i\x00n\x00g\x00 \x00q\x00u\x00o\x00t\x00e
        Subject Public Key Info:
            Public Key Algorithm: rsaEncryption
            RSA Public Key: (1024 bit)
                Modulus (1024 bit):
                    00:bb:73:a4:4e:45:8e:80:b1:65:b6:d8:3b:96:c8:
                    3b:c4:2e:40:98:2a:a9:0d:2e:75:29:df:dd:28:8f:
                    dc:65:4e:2f:8b:24:55:f4:5b:95:5e:d8:29:c8:31:
                    aa:53:41:a6:1b:2a:cc:8d:67:b6:d8:5f:56:7d:bd:
                    0e:17:88:9b:28:b8:fc:54:ff:0e:1f:d9:59:f7:6f:
                    99:46:76:86:69:87:f7:07:51:f6:1a:76:91:37:40:
                    96:de:5a:0e:c1:20:7f:b5:1b:79:c2:63:13:50:dc:
                    f0:35:11:2c:4a:30:e0:68:8f:dc:51:4c:2b:61:ba:
                    a5:e6:ad:72:8b:c4:e1:2d:73
                Exponent: 65537 (0x10001)
        X509v3 extensions:
            X509v3 Key Usage: 
                Digital Signature, Non Repudiation, Key Encipherment
            X509v3 Subject Key Identifier: 
                31:AE:51:BD:37:3E:EB:D6:98:7D:BD:DF:45:0C:92:4E:73:58:35:AA
            X509v3 Authority Key Identifier: 
                keyid:E8:6A:BB:C2:90:EA:6C:70:22:3E:F6:F6:48:1B:03:E6:BE:B7:A6:55

            X509v3 Subject Alternative Name: 
                DirName:/CN=User 18 Root 11
    Signature Algorithm: sha1WithRSAEncryption
        51:34:24:4b:78:89:95:5d:43:15:3e:62:fc:40:a0:34:a5:6e:
        83:b5:ee:f0:93:ae:8a:27:97:9c:66:54:c9:aa:f5:9b:96:88:
        43:25:76:b6:0d:06:36:6c:0e:08:5f:15:45:c6:cc:d1:62:18:
        6b:fa:cd:af:53:7c:7c:97:30:13:a7:03:ac:db:04:25:bb:22:
        7d:49:70:30:69:9f:c8:22:94:32:40:83:d3:d1:9d:1c:2a:64:
        cf:a9:42:0c:ce:0c:b8:3d:63:33:bb:e1:85:45:a7:79:89:ac:
        0c:1b:b5:a4:e0:1d:4d:99:d6:68:9b:c2:67:97:9c:9d:2c:57:
        12:fe
-----BEGIN CERTIFICATE-----
MIICxjCCAi+gAwIBAgICEBMwDQYJKoZIhvcNAQEFBQAwYDELMAkGA1UEBhMCREUx
EDAOBgNVBAgTB0hhbWJ1cmcxFzAVBgNVBAoTDk9wZW5PZmZpY2Uub3JnMRQwEgYD
VQQLEwtEZXZlbG9wbWVudDEQMA4GA1UEAxMHUm9vdCAxMTAeFw0xMDAxMTkxMDA0
MzZaFw0zNTAxMTMxMDA0MzZaMHcxCzAJBgNVBAYTAkRFMRAwDgYDVQQIEwdIYW1i
dXJnMRcwFQYDVQQKEw5PcGVuT2ZmaWNlLm9yZzEUMBIGA1UECxMLRGV2ZWxvcG1l
bnQxJzAlBgNVBAMeHgBcAHMAdABhAHIAdABpAG4AZwAgAHEAdQBvAHQAZTCBnzAN
BgkqhkiG9w0BAQEFAAOBjQAwgYkCgYEAu3OkTkWOgLFlttg7lsg7xC5AmCqpDS51
Kd/dKI/cZU4viyRV9FuVXtgpyDGqU0GmGyrMjWe22F9Wfb0OF4ibKLj8VP8OH9lZ
92+ZRnaGaYf3B1H2GnaRN0CW3loOwSB/tRt5wmMTUNzwNREsSjDgaI/cUUwrYbql
5q1yi8ThLXMCAwEAAaN4MHYwCwYDVR0PBAQDAgXgMB0GA1UdDgQWBBQxrlG9Nz7r
1ph9vd9FDJJOc1g1qjAfBgNVHSMEGDAWgBToarvCkOpscCI+9vZIGwPmvremVTAn
BgNVHREEIDAepBwwGjEYMBYGA1UEAxMPVXNlciAxOCBSb290IDExMA0GCSqGSIb3
DQEBBQUAA4GBAFE0JEt4iZVdQxU+YvxAoDSlboO17vCTroonl5xmVMmq9ZuWiEMl
drYNBjZsDghfFUXGzNFiGGv6za9TfHyXMBOnA6zbBCW7In1JcDBpn8gilDJAg9PR
nRwqZM+pQgzODLg9YzO74YVFp3mJrAwbtaTgHU2Z1mibwmeXnJ0sVxL+
-----END CERTIFICATE-----
