Certificate:
    Data:
        Version: 3 (0x2)
        Serial Number: 4116 (0x1014)
        Signature Algorithm: sha1WithRSAEncryption
        Issuer: C=DE, ST=Hamburg, O=OpenOffice.org, OU=Development, CN=Root 11
        Validity
            Not Before: Jan 19 10:05:50 2010 GMT
            Not After : Jan 13 10:05:50 2035 GMT
        Subject: C=DE, ST=Hamburg, O=OpenOffice.org, OU=Development, CN=\x00e\x00n\x00d\x00i\x00n\x00g\x00 \x00q\x00u\x00o\x00t\x00e\x00\
        Subject Public Key Info:
            Public Key Algorithm: rsaEncryption
            RSA Public Key: (1024 bit)
                Modulus (1024 bit):
                    00:ca:cc:98:77:0c:10:dd:0e:87:a2:da:b6:e6:97:
                    91:36:71:54:de:2b:f8:de:18:b7:23:eb:e5:e3:57:
                    ae:cf:0b:6d:86:0f:63:f0:c4:4e:2a:66:48:33:c4:
                    e3:0b:2c:f5:e6:e5:e5:0f:f8:e0:a1:bc:11:06:a1:
                    19:16:ec:44:77:a6:db:7d:d6:78:29:1f:57:f1:9d:
                    3c:b4:3a:2b:3b:94:64:6d:e3:ce:b3:fa:d8:28:e2:
                    ed:76:9a:97:41:64:7c:0d:48:b8:1d:6a:56:e3:f9:
                    4c:88:e9:1a:3c:b8:af:7a:13:67:19:59:36:46:79:
                    52:72:ea:51:80:65:be:e2:0f
                Exponent: 65537 (0x10001)
        X509v3 extensions:
            X509v3 Key Usage: 
                Digital Signature, Non Repudiation, Key Encipherment
            X509v3 Subject Key Identifier: 
                D2:D8:8D:EE:39:D7:EA:15:23:00:7C:9D:48:1C:51:17:F8:80:86:CE
            X509v3 Authority Key Identifier: 
                keyid:E8:6A:BB:C2:90:EA:6C:70:22:3E:F6:F6:48:1B:03:E6:BE:B7:A6:55

            X509v3 Subject Alternative Name: 
                DirName:/CN=User 19 Root 11
    Signature Algorithm: sha1WithRSAEncryption
        6e:05:c4:48:32:4a:62:6f:a3:8c:23:af:47:dd:d4:c7:c1:91:
        17:7e:cd:36:73:39:a3:7b:c9:ae:da:f6:e1:bd:82:d6:72:17:
        78:20:a2:27:ad:f5:d2:3f:10:66:e0:d8:ba:10:00:c3:76:5b:
        de:36:cb:2a:91:25:89:08:0e:2a:6a:81:d0:a7:49:70:42:f3:
        94:a3:bf:6c:6b:b9:fa:fd:f9:d4:1f:6f:75:27:b9:0d:d3:d2:
        fd:5d:0d:dc:f5:34:29:a2:3a:2f:04:ab:48:41:6d:d7:2b:fd:
        42:02:99:3c:cf:aa:6b:98:66:17:83:39:4a:6f:47:36:ad:db:
        22:6e
-----BEGIN CERTIFICATE-----
MIICwjCCAiugAwIBAgICEBQwDQYJKoZIhvcNAQEFBQAwYDELMAkGA1UEBhMCREUx
EDAOBgNVBAgTB0hhbWJ1cmcxFzAVBgNVBAoTDk9wZW5PZmZpY2Uub3JnMRQwEgYD
VQQLEwtEZXZlbG9wbWVudDEQMA4GA1UEAxMHUm9vdCAxMTAeFw0xMDAxMTkxMDA1
NTBaFw0zNTAxMTMxMDA1NTBaMHMxCzAJBgNVBAYTAkRFMRAwDgYDVQQIEwdIYW1i
dXJnMRcwFQYDVQQKEw5PcGVuT2ZmaWNlLm9yZzEUMBIGA1UECxMLRGV2ZWxvcG1l
bnQxIzAhBgNVBAMeGgBlAG4AZABpAG4AZwAgAHEAdQBvAHQAZQBcMIGfMA0GCSqG
SIb3DQEBAQUAA4GNADCBiQKBgQDKzJh3DBDdDoei2rbml5E2cVTeK/jeGLcj6+Xj
V67PC22GD2PwxE4qZkgzxOMLLPXm5eUP+OChvBEGoRkW7ER3ptt91ngpH1fxnTy0
Ois7lGRt486z+tgo4u12mpdBZHwNSLgdalbj+UyI6Ro8uK96E2cZWTZGeVJy6lGA
Zb7iDwIDAQABo3gwdjALBgNVHQ8EBAMCBeAwHQYDVR0OBBYEFNLYje451+oVIwB8
nUgcURf4gIbOMB8GA1UdIwQYMBaAFOhqu8KQ6mxwIj729kgbA+a+t6ZVMCcGA1Ud
EQQgMB6kHDAaMRgwFgYDVQQDEw9Vc2VyIDE5IFJvb3QgMTEwDQYJKoZIhvcNAQEF
BQADgYEAbgXESDJKYm+jjCOvR93Ux8GRF37NNnM5o3vJrtr24b2C1nIXeCCiJ631
0j8QZuDYuhAAw3Zb3jbLKpEliQgOKmqB0KdJcELzlKO/bGu5+v351B9vdSe5DdPS
/V0N3PU0KaI6LwSrSEFt1yv9QgKZPM+qa5hmF4M5Sm9HNq3bIm4=
-----END CERTIFICATE-----
