Certificate:
    Data:
        Version: 3 (0x2)
        Serial Number: 4117 (0x1015)
        Signature Algorithm: sha1WithRSAEncryption
        Issuer: C=DE, ST=Hamburg, O=OpenOffice.org, OU=Development, CN=Root 11
        Validity
            Not Before: Jan 19 10:07:07 2010 GMT
            Not After : Jan 13 10:07:07 2035 GMT
        Subject: C=DE, ST=Hamburg, O=OpenOffice.org, OU=Development, CN=\x00m\x00i\x00d\x00d\x00l\x00e\x00 \x00\\x00q\x00u\x00o\x00t\x00e
        Subject Public Key Info:
            Public Key Algorithm: rsaEncryption
            RSA Public Key: (1024 bit)
                Modulus (1024 bit):
                    00:f0:7c:07:f6:13:52:ce:13:cf:8a:5f:7f:5f:3c:
                    d4:93:c8:a0:43:1f:e2:fc:3f:62:63:be:b5:17:e0:
                    32:b0:d0:c2:9a:35:9e:3b:29:30:b4:13:78:18:ae:
                    80:ba:fb:f3:fc:81:ad:aa:47:18:eb:fc:d1:76:de:
                    b6:cf:55:65:5e:3e:15:93:8e:9c:39:4e:a3:ae:1d:
                    c0:49:22:dc:25:09:33:95:0d:b5:62:7c:96:0b:05:
                    b6:10:ae:ee:f8:18:24:9f:d4:ed:b3:4c:a9:4d:f2:
                    be:6c:66:37:b9:17:cb:14:df:52:b4:a8:de:63:0d:
                    4f:78:58:16:ab:f2:3f:f6:a9
                Exponent: 65537 (0x10001)
        X509v3 extensions:
            X509v3 Key Usage: 
                Digital Signature, Non Repudiation, Key Encipherment
            X509v3 Subject Key Identifier: 
                41:CC:3D:88:34:10:21:13:A2:34:24:B6:4E:F9:33:3C:B3:FA:56:BC
            X509v3 Authority Key Identifier: 
                keyid:E8:6A:BB:C2:90:EA:6C:70:22:3E:F6:F6:48:1B:03:E6:BE:B7:A6:55

            X509v3 Subject Alternative Name: 
                DirName:/CN=User 20 Root 11
    Signature Algorithm: sha1WithRSAEncryption
        a7:17:c3:92:37:10:ee:9a:12:65:32:82:56:93:82:fa:0e:40:
        9f:ae:30:6a:b1:6f:85:18:7f:ff:9c:30:49:b7:56:bf:a3:86:
        d7:dd:5d:79:d1:7f:9a:95:b6:bd:1d:43:cc:2c:aa:7a:40:c4:
        de:17:02:22:74:ec:a9:cd:8d:93:f6:6c:98:7e:bb:6a:68:70:
        66:d4:a0:8f:1a:7a:8e:9e:38:35:aa:87:6a:e5:db:80:69:51:
        51:68:46:4f:3d:da:17:df:6f:22:60:77:95:55:d3:12:1b:11:
        c1:6f:c1:96:78:00:47:61:af:53:c0:37:44:6b:92:67:7f:14:
        79:80
-----BEGIN CERTIFICATE-----
MIICwjCCAiugAwIBAgICEBUwDQYJKoZIhvcNAQEFBQAwYDELMAkGA1UEBhMCREUx
EDAOBgNVBAgTB0hhbWJ1cmcxFzAVBgNVBAoTDk9wZW5PZmZpY2Uub3JnMRQwEgYD
VQQLEwtEZXZlbG9wbWVudDEQMA4GA1UEAxMHUm9vdCAxMTAeFw0xMDAxMTkxMDA3
MDdaFw0zNTAxMTMxMDA3MDdaMHMxCzAJBgNVBAYTAkRFMRAwDgYDVQQIEwdIYW1i
dXJnMRcwFQYDVQQKEw5PcGVuT2ZmaWNlLm9yZzEUMBIGA1UECxMLRGV2ZWxvcG1l
bnQxIzAhBgNVBAMeGgBtAGkAZABkAGwAZQAgAFwAcQB1AG8AdABlMIGfMA0GCSqG
SIb3DQEBAQUAA4GNADCBiQKBgQDwfAf2E1LOE8+KX39fPNSTyKBDH+L8P2JjvrUX
4DKw0MKaNZ47KTC0E3gYroC6+/P8ga2qRxjr/NF23rbPVWVePhWTjpw5TqOuHcBJ
ItwlCTOVDbVifJYLBbYQru74GCSf1O2zTKlN8r5sZje5F8sU31K0qN5jDU94WBar
8j/2qQIDAQABo3gwdjALBgNVHQ8EBAMCBeAwHQYDVR0OBBYEFEHMPYg0ECETojQk
tk75Mzyz+la8MB8GA1UdIwQYMBaAFOhqu8KQ6mxwIj729kgbA+a+t6ZVMCcGA1Ud
EQQgMB6kHDAaMRgwFgYDVQQDEw9Vc2VyIDIwIFJvb3QgMTEwDQYJKoZIhvcNAQEF
BQADgYEApxfDkjcQ7poSZTKCVpOC+g5An64warFvhRh//5wwSbdWv6OG191dedF/
mpW2vR1DzCyqekDE3hcCInTsqc2Nk/ZsmH67amhwZtSgjxp6jp44NaqHauXbgGlR
UWhGTz3aF99vImB3lVXTEhsRwW/BlngAR2GvU8A3RGuSZ38UeYA=
-----END CERTIFICATE-----
