Certificate:
    Data:
        Version: 3 (0x2)
        Serial Number: 4118 (0x1016)
        Signature Algorithm: sha1WithRSAEncryption
        Issuer: C=DE, ST=Hamburg, O=OpenOffice.org, OU=Development, CN=Root 11
        Validity
            Not Before: Jan 19 10:09:50 2010 GMT
            Not After : Jan 13 10:09:50 2035 GMT
        Subject: C=DE, ST=Hamburg, O=OpenOffice.org, OU=Development, CN=\x00d\x00o\x00u\x00b\x00l\x00e\x00 \x00\\x00\\x00m\x00i\x00d\x00d\x00l\x00e\x00 \x00q\x00u\x00o\x00t\x00e
        Subject Public Key Info:
            Public Key Algorithm: rsaEncryption
            RSA Public Key: (1024 bit)
                Modulus (1024 bit):
                    00:cd:22:93:9a:93:18:34:2f:50:e0:cc:23:f4:60:
                    bc:96:60:d5:a5:f9:da:45:9a:5b:a3:0a:fb:71:25:
                    4c:bd:60:84:19:f5:93:28:c1:5d:b9:8d:05:05:4d:
                    01:85:aa:9e:5b:08:9c:01:f8:32:90:fe:ef:7f:eb:
                    cb:b3:8b:b2:c8:d1:79:d6:47:a3:d8:df:f1:d0:56:
                    04:04:bd:41:72:fc:98:75:10:d2:9b:b5:bc:55:a1:
                    fa:19:01:67:93:09:48:0a:67:ec:4d:12:47:37:6f:
                    c2:53:0e:c9:7a:30:ec:1d:9d:a5:e2:64:d8:92:4d:
                    ed:ec:b2:bb:10:96:76:28:47
                Exponent: 65537 (0x10001)
        X509v3 extensions:
            X509v3 Key Usage: 
                Digital Signature, Non Repudiation, Key Encipherment
            X509v3 Subject Key Identifier: 
                DC:FF:9A:2B:49:51:1E:FB:A7:3A:90:94:1B:E0:3E:34:89:13:48:EE
            X509v3 Authority Key Identifier: 
                keyid:E8:6A:BB:C2:90:EA:6C:70:22:3E:F6:F6:48:1B:03:E6:BE:B7:A6:55

            X509v3 Subject Alternative Name: 
                DirName:/CN=User 21 Root 11
    Signature Algorithm: sha1WithRSAEncryption
        16:aa:a6:b7:0e:e3:d2:ba:7e:9b:59:f6:cc:ce:5d:4d:2a:f2:
        95:60:46:24:dd:ea:e8:08:e6:60:9c:33:82:8c:34:a2:d8:38:
        fb:75:fe:31:79:10:78:7d:93:44:3b:00:90:83:a4:15:52:8d:
        3a:b4:9c:c0:6f:95:2c:4f:d8:b3:3b:cf:69:ab:3c:41:3a:43:
        1b:0a:8b:b0:b4:aa:8b:bf:6f:96:e2:65:4a:00:3a:49:bc:9a:
        a1:cd:13:b1:24:93:f6:44:cd:d3:71:91:da:4f:dd:75:3d:68:
        5c:6b:49:14:8a:23:b5:b6:4f:b6:41:d0:a7:16:7c:67:4c:b3:
        0a:88
-----BEGIN CERTIFICATE-----
MIIC0zCCAjygAwIBAgICEBYwDQYJKoZIhvcNAQEFBQAwYDELMAkGA1UEBhMCREUx
EDAOBgNVBAgTB0hhbWJ1cmcxFzAVBgNVBAoTDk9wZW5PZmZpY2Uub3JnMRQwEgYD
VQQLEwtEZXZlbG9wbWVudDEQMA4GA1UEAxMHUm9vdCAxMTAeFw0xMDAxMTkxMDA5
NTBaFw0zNTAxMTMxMDA5NTBaMIGDMQswCQYDVQQGEwJERTEQMA4GA1UECBMHSGFt
YnVyZzEXMBUGA1UEChMOT3Blbk9mZmljZS5vcmcxFDASBgNVBAsTC0RldmVsb3Bt
ZW50MTMwMQYDVQQDHioAZABvAHUAYgBsAGUAIABcAFwAbQBpAGQAZABsAGUAIABx
AHUAbwB0AGUwgZ8wDQYJKoZIhvcNAQEBBQADgY0AMIGJAoGBAM0ik5qTGDQvUODM
I/RgvJZg1aX52kWaW6MK+3ElTL1ghBn1kyjBXbmNBQVNAYWqnlsInAH4MpD+73/r
y7OLssjRedZHo9jf8dBWBAS9QXL8mHUQ0pu1vFWh+hkBZ5MJSApn7E0SRzdvwlMO
yXow7B2dpeJk2JJN7eyyuxCWdihHAgMBAAGjeDB2MAsGA1UdDwQEAwIF4DAdBgNV
HQ4EFgQU3P+aK0lRHvunOpCUG+A+NIkTSO4wHwYDVR0jBBgwFoAU6Gq7wpDqbHAi
Pvb2SBsD5r63plUwJwYDVR0RBCAwHqQcMBoxGDAWBgNVBAMTD1VzZXIgMjEgUm9v
dCAxMTANBgkqhkiG9w0BAQUFAAOBgQAWqqa3DuPSun6bWfbMzl1NKvKVYEYk3ero
COZgnDOCjDSi2Dj7df4xeRB4fZNEOwCQg6QVUo06tJzAb5UsT9izO89pqzxBOkMb
CouwtKqLv2+W4mVKADpJvJqhzROxJJP2RM3TcZHaT911PWhca0kUiiO1tk+2QdCn
FnxnTLMKiA==
-----END CERTIFICATE-----
