Certificate:
    Data:
        Version: 3 (0x2)
        Serial Number: 4119 (0x1017)
        Signature Algorithm: sha1WithRSAEncryption
        Issuer: C=DE, ST=Hamburg, O=OpenOffice.org, OU=Development, CN=Root 11
        Validity
            Not Before: Jan 19 10:11:53 2010 GMT
            Not After : Jan 13 10:11:53 2035 GMT
        Subject: C=DE, ST=Hamburg, O=OpenOffice.org, OU=Development, CN=\x00p\x00a\x00r\x00t\x00i\x00a\x00l\x00l\x00y\x00 \x00\\x00e\x00n\x00c\x00l\x00o\x00s\x00i\x00n\x00g\x00 \x00q\x00u\x00o\x00t\x00e\x00\
        Subject Public Key Info:
            Public Key Algorithm: rsaEncryption
            RSA Public Key: (1024 bit)
                Modulus (1024 bit):
                    00:e7:c9:bb:89:11:2f:2c:39:bc:d3:f5:d9:86:d4:
                    8e:d7:20:11:81:75:30:25:7e:2b:29:70:61:83:38:
                    24:d1:0f:cc:0b:88:71:29:06:05:a5:53:d2:00:2f:
                    12:0c:7d:42:e6:47:33:de:cc:f8:7b:2a:5d:d9:cb:
                    69:24:91:38:bf:0c:1a:12:cf:1e:f9:44:c2:1c:e8:
                    6f:ea:ab:8b:92:4c:93:8c:69:61:b9:57:b3:1d:d0:
                    03:3e:13:9d:30:bd:b2:b9:d9:c7:9b:4d:18:45:b0:
                    19:19:15:58:4c:bd:5a:a1:59:4f:f0:1f:99:26:3b:
                    4e:76:c6:bb:21:3c:94:bc:d9
                Exponent: 65537 (0x10001)
        X509v3 extensions:
            X509v3 Key Usage: 
                Digital Signature, Non Repudiation, Key Encipherment
            X509v3 Subject Key Identifier: 
                43:E4:70:39:E3:91:80:2A:C3:BC:1A:F4:A3:51:4B:99:C5:20:93:A6
            X509v3 Authority Key Identifier: 
                keyid:E8:6A:BB:C2:90:EA:6C:70:22:3E:F6:F6:48:1B:03:E6:BE:B7:A6:55

            X509v3 Subject Alternative Name: 
                DirName:/CN=User 22 Root 11
    Signature Algorithm: sha1WithRSAEncryption
        28:ce:8c:f0:bf:56:c6:a4:02:df:dd:1d:75:dc:cf:62:a0:92:
        58:64:91:8c:bb:96:3c:52:d5:66:6c:31:7e:1c:d9:a8:e5:1c:
        a6:9f:5e:26:3f:69:71:c6:d7:5d:02:4f:a7:42:a5:85:fa:38:
        01:43:36:54:75:4c:51:a2:99:5d:72:05:9a:9b:fc:5e:83:9b:
        a0:ef:11:b1:a4:dd:a5:50:2f:d0:14:dd:04:0f:8b:93:7e:4b:
        3e:24:04:45:d0:98:46:49:74:9f:d7:b4:68:09:dc:b6:ac:35:
        3f:5d:f9:ee:77:a4:35:46:75:a4:6a:d6:c1:53:4f:d2:0c:38:
        3c:df
-----BEGIN CERTIFICATE-----
MIIC3zCCAkigAwIBAgICEBcwDQYJKoZIhvcNAQEFBQAwYDELMAkGA1UEBhMCREUx
EDAOBgNVBAgTB0hhbWJ1cmcxFzAVBgNVBAoTDk9wZW5PZmZpY2Uub3JnMRQwEgYD
VQQLEwtEZXZlbG9wbWVudDEQMA4GA1UEAxMHUm9vdCAxMTAeFw0xMDAxMTkxMDEx
NTNaFw0zNTAxMTMxMDExNTNaMIGPMQswCQYDVQQGEwJERTEQMA4GA1UECBMHSGFt
YnVyZzEXMBUGA1UEChMOT3Blbk9mZmljZS5vcmcxFDASBgNVBAsTC0RldmVsb3Bt
ZW50MT8wPQYDVQQDHjYAcABhAHIAdABpAGEAbABsAHkAIABcAGUAbgBjAGwAbwBz
AGkAbgBnACAAcQB1AG8AdABlAFwwgZ8wDQYJKoZIhvcNAQEBBQADgY0AMIGJAoGB
AOfJu4kRLyw5vNP12YbUjtcgEYF1MCV+KylwYYM4JNEPzAuIcSkGBaVT0gAvEgx9
QuZHM97M+HsqXdnLaSSROL8MGhLPHvlEwhzob+qri5JMk4xpYblXsx3QAz4TnTC9
srnZx5tNGEWwGRkVWEy9WqFZT/AfmSY7TnbGuyE8lLzZAgMBAAGjeDB2MAsGA1Ud
DwQEAwIF4DAdBgNVHQ4EFgQUQ+RwOeORgCrDvBr0o1FLmcUgk6YwHwYDVR0jBBgw
FoAU6Gq7wpDqbHAiPvb2SBsD5r63plUwJwYDVR0RBCAwHqQcMBoxGDAWBgNVBAMT
D1VzZXIgMjIgUm9vdCAxMTANBgkqhkiG9w0BAQUFAAOBgQAozozwv1bGpALf3R11
3M9ioJJYZJGMu5Y8UtVmbDF+HNmo5Rymn14mP2lxxtddAk+nQqWF+jgBQzZUdUxR
opldcgWam/xeg5ug7xGxpN2lUC/QFN0ED4uTfks+JARF0JhGSXSf17RoCdy2rDU/
Xfnud6Q1RnWkatbBU0/SDDg83w==
-----END CERTIFICATE-----
