Certificate:
    Data:
        Version: 3 (0x2)
        Serial Number: 4120 (0x1018)
        Signature Algorithm: sha1WithRSAEncryption
        Issuer: C=DE, ST=Hamburg, O=OpenOffice.org, OU=Development, CN=Root 11
        Validity
            Not Before: Jan 19 10:13:38 2010 GMT
            Not After : Jan 13 10:13:38 2035 GMT
        Subject: C=DE, ST=Hamburg, O=OpenOffice.org, OU=Development, CN=\x00\\x00U\x00s\x00e\x00r\x00 \x002\x003\x00,\x00 \x00s\x00t\x00a\x00r\x00t\x00i\x00n\x00g\x00 \x00q\x00u\x00o\x00t\x00e
        Subject Public Key Info:
            Public Key Algorithm: rsaEncryption
            RSA Public Key: (1024 bit)
                Modulus (1024 bit):
                    00:b9:e3:64:f8:02:be:98:47:de:c6:f4:22:14:4f:
                    22:fe:17:8c:14:7f:b8:27:44:51:9d:5a:79:33:b4:
                    d0:21:27:b0:ed:f9:9f:3d:54:ef:ba:3a:d8:89:2a:
                    ca:a8:8f:f3:f6:a7:6b:5f:0a:58:2d:a0:e3:05:3a:
                    26:a6:1e:b6:89:a1:e1:71:11:e7:16:93:29:69:f8:
                    14:a2:e3:d7:4e:e5:60:40:d7:40:c5:37:d6:95:7c:
                    4f:35:fd:a8:82:7f:90:32:1d:99:e7:8a:b9:93:a4:
                    f3:23:0a:a5:f9:56:31:73:d8:e3:cb:d6:0e:2f:2b:
                    ee:8e:b5:ca:eb:63:82:1c:0b
                Exponent: 65537 (0x10001)
        X509v3 extensions:
            X509v3 Key Usage: 
                Digital Signature, Non Repudiation, Key Encipherment
            X509v3 Subject Key Identifier: 
                80:A8:F7:13:E3:E8:F8:A6:60:94:21:C1:FE:54:54:89:AC:4B:DF:45
            X509v3 Authority Key Identifier: 
                keyid:E8:6A:BB:C2:90:EA:6C:70:22:3E:F6:F6:48:1B:03:E6:BE:B7:A6:55

            X509v3 Subject Alternative Name: 
                DirName:/CN=User 23 Root 11
    Signature Algorithm: sha1WithRSAEncryption
        be:31:bd:4a:56:80:64:f0:1e:ea:77:4a:f3:e3:ec:f0:ad:27:
        cc:05:01:fa:d2:12:7c:8e:85:5b:37:54:9c:4f:96:2d:1c:81:
        e4:21:3d:4b:d9:86:1a:6c:29:5e:88:f2:ae:04:f1:70:87:25:
        b9:9a:4a:ef:dd:21:f9:17:33:ee:a1:eb:38:fb:c4:73:72:70:
        0c:67:58:96:95:8c:2c:5a:4a:31:28:50:52:64:65:5c:63:60:
        de:24:df:a0:e9:0d:c0:b6:d6:4c:51:a7:5a:e8:dd:f6:ff:49:
        e6:6f:7f:86:38:5d:c7:f9:eb:55:f1:b2:89:3b:cd:41:f7:5d:
        a8:b0
-----BEGIN CERTIFICATE-----
MIIC2TCCAkKgAwIBAgICEBgwDQYJKoZIhvcNAQEFBQAwYDELMAkGA1UEBhMCREUx
EDAOBgNVBAgTB0hhbWJ1cmcxFzAVBgNVBAoTDk9wZW5PZmZpY2Uub3JnMRQwEgYD
VQQLEwtEZXZlbG9wbWVudDEQMA4GA1UEAxMHUm9vdCAxMTAeFw0xMDAxMTkxMDEz
MzhaFw0zNTAxMTMxMDEzMzhaMIGJMQswCQYDVQQGEwJERTEQMA4GA1UECBMHSGFt
YnVyZzEXMBUGA1UEChMOT3Blbk9mZmljZS5vcmcxFDASBgNVBAsTC0RldmVsb3Bt
ZW50MTkwNwYDVQQDHjAAXABVAHMAZQByACAAMgAzACwAIABzAHQAYQByAHQAaQBu
AGcAIABxAHUAbwB0AGUwgZ8wDQYJKoZIhvcNAQEBBQADgY0AMIGJAoGBALnjZPgC
vphH3sb0IhRPIv4XjBR/uCdEUZ1aeTO00CEnsO35nz1U77o62IkqyqiP8/ana18K
WC2g4wU6JqYetomh4XER5xaTKWn4FKLj107lYEDXQMU31pV8TzX9qIJ/kDIdmeeK
uZOk8yMKpflWMXPY48vWDi8r7o61yutjghwLAgMBAAGjeDB2MAsGA1UdDwQEAwIF
4DAdBgNVHQ4EFgQUgKj3E+Po+KZglCHB/lRUiaxL30UwHwYDVR0jBBgwFoAU6Gq7
wpDqbHAiPvb2SBsD5r63plUwJwYDVR0RBCAwHqQcMBoxGDAWBgNVBAMTD1VzZXIg
MjMgUm9vdCAxMTANBgkqhkiG9w0BAQUFAAOBgQC+Mb1KVoBk8B7qd0rz4+zwrSfM
BQH60hJ8joVbN1ScT5YtHIHkIT1L2YYabCleiPKuBPFwhyW5mkrv3SH5FzPuoes4
+8RzcnAMZ1iWlYwsWkoxKFBSZGVcY2DeJN+g6Q3AttZMUada6N32/0nmb3+GOF3H
+etV8bKJO81B912osA==
-----END CERTIFICATE-----
