Certificate:
    Data:
        Version: 3 (0x2)
        Serial Number: 4121 (0x1019)
        Signature Algorithm: sha1WithRSAEncryption
        Issuer: C=DE, ST=Hamburg, O=OpenOffice.org, OU=Development, CN=Root 11
        Validity
            Not Before: Jan 19 10:14:50 2010 GMT
            Not After : Jan 13 10:14:50 2035 GMT
        Subject: C=DE, ST=Hamburg, O=OpenOffice.org, OU=Development, CN=\x00U\x00s\x00e\x00r\x00 \x002\x004\x00,\x00 \x00e\x00n\x00d\x00i\x00n\x00g\x00 \x00q\x00u\x00o\x00t\x00e\x00\
        Subject Public Key Info:
            Public Key Algorithm: rsaEncryption
            RSA Public Key: (1024 bit)
                Modulus (1024 bit):
                    00:9c:cd:78:e7:11:1d:61:d4:0c:c6:87:c9:28:47:
                    84:23:6b:86:c3:38:37:62:5a:9a:4b:50:fc:b7:f3:
                    d9:4b:1b:20:ff:06:42:bb:22:33:c5:22:12:2c:bb:
                    e6:c8:08:69:0e:af:e9:22:45:9f:ef:2c:26:46:d7:
                    1b:36:db:70:58:32:bc:3d:d7:7d:64:27:44:54:6c:
                    89:12:88:d7:31:3d:3f:5c:96:cb:69:9f:b1:a9:e0:
                    9a:de:50:b7:ad:d8:29:bf:bc:3c:21:e9:a2:79:21:
                    46:81:ea:90:df:44:0c:6c:bb:f8:47:c8:e9:79:d1:
                    8d:40:1b:5d:d3:75:9b:e4:0b
                Exponent: 65537 (0x10001)
        X509v3 extensions:
            X509v3 Key Usage: 
                Digital Signature, Non Repudiation, Key Encipherment
            X509v3 Subject Key Identifier: 
                81:14:09:35:7F:F6:7A:83:6B:19:C2:22:24:92:E6:D4:EF:52:1C:0B
            X509v3 Authority Key Identifier: 
                keyid:E8:6A:BB:C2:90:EA:6C:70:22:3E:F6:F6:48:1B:03:E6:BE:B7:A6:55

            X509v3 Subject Alternative Name: 
                DirName:/CN=User 24 Root 11
    Signature Algorithm: sha1WithRSAEncryption
        7c:65:0b:e2:cd:ca:00:e8:40:0f:37:70:a1:89:54:5d:03:06:
        2c:60:56:dc:2f:b7:01:ac:75:58:f6:82:8f:91:63:e2:91:d1:
        17:7b:bd:63:b9:9c:4e:46:86:3e:a6:f5:a6:56:ac:90:2a:f4:
        d8:a0:6c:02:15:6e:d9:f6:2a:f8:9a:c4:48:bd:cd:54:82:55:
        c6:d5:52:76:09:e3:3d:17:8d:5c:46:16:ae:9e:56:df:9f:c3:
        05:15:6f:ae:d0:b5:76:67:48:2d:5a:3c:59:da:1b:13:c3:84:
        5e:2a:57:8d:86:9a:f1:8a:5d:01:47:93:44:62:af:65:03:e1:
        df:10
-----BEGIN CERTIFICATE-----
MIIC1TCCAj6gAwIBAgICEBkwDQYJKoZIhvcNAQEFBQAwYDELMAkGA1UEBhMCREUx
EDAOBgNVBAgTB0hhbWJ1cmcxFzAVBgNVBAoTDk9wZW5PZmZpY2Uub3JnMRQwEgYD
VQQLEwtEZXZlbG9wbWVudDEQMA4GA1UEAxMHUm9vdCAxMTAeFw0xMDAxMTkxMDE0
NTBaFw0zNTAxMTMxMDE0NTBaMIGFMQswCQYDVQQGEwJERTEQMA4GA1UECBMHSGFt
YnVyZzEXMBUGA1UEChMOT3Blbk9mZmljZS5vcmcxFDASBgNVBAsTC0RldmVsb3Bt
ZW50MTUwMwYDVQQDHiwAVQBzAGUAcgAgADIANAAsACAAZQBuAGQAaQBuAGcAIABx
AHUAbwB0AGUAXDCBnzANBgkqhkiG9w0BAQEFAAOBjQAwgYkCgYEAnM145xEdYdQM
xofJKEeEI2uGwzg3YlqaS1D8t/PZSxsg/wZCuyIzxSISLLvmyAhpDq/pIkWf7ywm
RtcbNttwWDK8Pdd9ZCdEVGyJEojXMT0/XJbLaZ+xqeCa3lC3rdgpv7w8IemieSFG
geqQ30QMbLv4R8jpedGNQBtd03Wb5AsCAwEAAaN4MHYwCwYDVR0PBAQDAgXgMB0G
A1UdDgQWBBSBFAk1f/Z6g2sZwiIkkubU71IcCzAfBgNVHSMEGDAWgBToarvCkOps
cCI+9vZIGwPmvremVTAnBgNVHREEIDAepBwwGjEYMBYGA1UEAxMPVXNlciAyNCBS
b290IDExMA0GCSqGSIb3DQEBBQUAA4GBAHxlC+LNygDoQA83cKGJVF0DBixgVtwv
twGsdVj2go+RY+KR0Rd7vWO5nE5Ghj6m9aZWrJAq9NigbAIVbtn2KviaxEi9zVSC
VcbVUnYJ4z0XjVxGFq6eVt+fwwUVb67QtXZnSC1aPFnaGxPDhF4qV42GmvGKXQFH
k0Rir2UD4d8Q
-----END CERTIFICATE-----
