Certificate:
    Data:
        Version: 3 (0x2)
        Serial Number: 4122 (0x101a)
        Signature Algorithm: sha1WithRSAEncryption
        Issuer: C=DE, ST=Hamburg, O=OpenOffice.org, OU=Development, CN=Root 11
        Validity
            Not Before: Jan 19 10:16:10 2010 GMT
            Not After : Jan 13 10:16:10 2035 GMT
        Subject: C=DE, ST=Hamburg, O=OpenOffice.org, OU=Development, CN=\x00\\x00U\x00s\x00e\x00r\x00 \x002\x005\x00,\x00 \x00e\x00n\x00c\x00l\x00o\x00s\x00i\x00n\x00g\x00 \x00q\x00u\x00o\x00t\x00e\x00\
        Subject Public Key Info:
            Public Key Algorithm: rsaEncryption
            RSA Public Key: (1024 bit)
                Modulus (1024 bit):
                    00:ad:20:4a:85:d2:a8:2a:f8:0e:4c:b5:2d:72:a5:
                    1d:0e:b1:8a:76:2c:b0:bf:7a:48:b8:57:29:cb:40:
                    c5:8a:e8:0e:d3:f6:f9:b1:90:a6:4a:bb:82:45:fd:
                    c2:ff:03:fa:fc:4a:5d:93:0b:52:a2:17:10:b1:7e:
                    13:1d:9d:28:26:e3:44:bd:fd:26:da:b2:7b:47:e1:
                    c4:35:ea:53:1b:94:76:cc:f2:f6:c1:86:f2:18:46:
                    e1:71:c0:5d:e5:8f:0a:10:7a:ea:61:af:d0:ba:28:
                    22:13:77:0f:7d:9e:e0:0a:f0:92:ce:dd:b3:5d:a6:
                    df:c1:eb:a8:29:57:e6:71:65
                Exponent: 65537 (0x10001)
        X509v3 extensions:
            X509v3 Key Usage: 
                Digital Signature, Non Repudiation, Key Encipherment
            X509v3 Subject Key Identifier: 
                C3:EE:4A:7E:AC:46:2D:BA:42:F7:33:1F:E7:49:FA:21:D3:BC:DD:49
            X509v3 Authority Key Identifier: 
                keyid:E8:6A:BB:C2:90:EA:6C:70:22:3E:F6:F6:48:1B:03:E6:BE:B7:A6:55

            X509v3 Subject Alternative Name: 
                DirName:/CN=User 25 Root 11
    Signature Algorithm: sha1WithRSAEncryption
        bf:63:34:12:e3:4b:83:4e:e5:c5:08:c3:b3:ea:be:38:33:38:
        3c:99:c3:ca:08:84:05:d4:21:53:7a:7d:43:86:c2:63:e2:d3:
        7c:21:3c:72:fa:c6:f3:bf:2b:10:5e:ca:4b:2c:2c:1c:e3:10:
        eb:7c:ff:b1:20:b2:47:1b:b3:3e:77:b6:74:fb:83:85:ac:b8:
        c9:5b:ca:8a:14:2f:e4:81:6e:04:6f:c8:37:c0:9f:c0:41:0f:
        b4:6e:21:82:69:51:e8:68:09:72:c4:8c:72:db:47:0b:a5:52:
        d7:e7:b3:5d:10:9c:ed:14:af:1c:fd:0b:11:a3:fd:f9:b9:2d:
        48:b5
-----BEGIN CERTIFICATE-----
MIIC3TCCAkagAwIBAgICEBowDQYJKoZIhvcNAQEFBQAwYDELMAkGA1UEBhMCREUx
EDAOBgNVBAgTB0hhbWJ1cmcxFzAVBgNVBAoTDk9wZW5PZmZpY2Uub3JnMRQwEgYD
VQQLEwtEZXZlbG9wbWVudDEQMA4GA1UEAxMHUm9vdCAxMTAeFw0xMDAxMTkxMDE2
MTBaFw0zNTAxMTMxMDE2MTBaMIGNMQswCQYDVQQGEwJERTEQMA4GA1UECBMHSGFt
YnVyZzEXMBUGA1UEChMOT3Blbk9mZmljZS5vcmcxFDASBgNVBAsTC0RldmVsb3Bt
ZW50MT0wOwYDVQQDHjQAXABVAHMAZQByACAAMgA1ACwAIABlAG4AYwBsAG8AcwBp
AG4AZwAgAHEAdQBvAHQAZQBcMIGfMA0GCSqGSIb3DQEBAQUAA4GNADCBiQKBgQCt
IEqF0qgq+A5MtS1ypR0OsYp2LLC/eki4VynLQMWK6A7T9vmxkKZKu4JF/cL/A/r8
Sl2TC1KiFxCxfhMdnSgm40S9/SbasntH4cQ16lMblHbM8vbBhvIYRuFxwF3ljwoQ
euphr9C6KCITdw99nuAK8JLO3bNdpt/B66gpV+ZxZQIDAQABo3gwdjALBgNVHQ8E
BAMCBeAwHQYDVR0OBBYEFMPuSn6sRi26QvczH+dJ+iHTvN1JMB8GA1UdIwQYMBaA
FOhqu8KQ6mxwIj729kgbA+a+t6ZVMCcGA1UdEQQgMB6kHDAaMRgwFgYDVQQDEw9V
c2VyIDI1IFJvb3QgMTEwDQYJKoZIhvcNAQEFBQADgYEAv2M0EuNLg07lxQjDs+q+
ODM4PJnDygiEBdQhU3p9Q4bCY+LTfCE8cvrG878rEF7KSywsHOMQ63z/sSCyRxuz
Pne2dPuDhay4yVvKihQv5IFuBG/IN8CfwEEPtG4hgmlR6GgJcsSMcttHC6VS1+ez
XRCc7RSvHP0LEaP9+bktSLU=
-----END CERTIFICATE-----
