Certificate:
    Data:
        Version: 3 (0x2)
        Serial Number: 4123 (0x101b)
        Signature Algorithm: sha1WithRSAEncryption
        Issuer: C=DE, ST=Hamburg, O=OpenOffice.org, OU=Development, CN=Root 11
        Validity
            Not Before: Jan 19 10:17:45 2010 GMT
            Not After : Jan 13 10:17:45 2035 GMT
        Subject: C=DE, ST=Hamburg, O=OpenOffice.org, OU=Development, CN=\x00U\x00s\x00e\x00r\x00 \x002\x006\x00\\x00,\x00 \x00m\x00i\x00d\x00d\x00l\x00e\x00 \x00q\x00u\x00o\x00t\x00e
        Subject Public Key Info:
            Public Key Algorithm: rsaEncryption
            RSA Public Key: (1024 bit)
                Modulus (1024 bit):
                    00:ec:4c:2b:ba:b1:e5:ba:83:e8:64:6c:67:fe:f9:
                    84:9a:71:68:0b:10:b0:2e:2c:21:d8:6d:c8:cc:de:
                    82:76:15:b8:74:a0:4b:3c:39:f0:ee:3a:08:6c:0e:
                    0c:36:51:ed:44:04:ca:2b:76:30:6f:85:d4:f6:f0:
                    7e:53:2b:17:90:6a:7b:79:e0:c2:00:f2:5f:dd:19:
                    8f:09:7a:a2:c8:85:95:24:e0:41:39:ec:75:e1:c7:
                    03:ba:6d:e9:81:48:8b:36:38:e0:99:3e:58:04:e3:
                    03:8d:e4:3b:95:98:0a:23:96:f1:96:50:06:5d:71:
                    6f:02:e1:c5:cd:e0:5c:c4:7b
                Exponent: 65537 (0x10001)
        X509v3 extensions:
            X509v3 Key Usage: 
                Digital Signature, Non Repudiation, Key Encipherment
            X509v3 Subject Key Identifier: 
                1D:A3:64:F0:93:51:C2:F2:1A:BB:D0:2D:20:95:5E:19:94:4C:72:BB
            X509v3 Authority Key Identifier: 
                keyid:E8:6A:BB:C2:90:EA:6C:70:22:3E:F6:F6:48:1B:03:E6:BE:B7:A6:55

            X509v3 Subject Alternative Name: 
                DirName:/CN=User 26 Root 11
    Signature Algorithm: sha1WithRSAEncryption
        8c:c1:56:7d:d9:a8:f7:af:4b:57:4a:a5:2a:32:11:12:e0:d8:
        0e:10:39:8f:17:53:25:f5:c6:57:55:e4:f0:16:f2:11:cc:af:
        cc:44:6b:23:6f:8e:2a:df:ee:ff:f0:d4:3f:0a:85:7e:19:de:
        f8:cf:69:be:8b:59:ad:3c:be:3c:d7:32:ac:ba:82:91:28:23:
        71:ba:b5:29:05:e4:98:ee:2b:bb:56:04:7f:8b:69:c5:f9:4c:
        1b:0b:2e:3a:46:41:8e:da:16:68:9f:c7:57:71:8e:97:0d:b0:
        a1:92:ae:7c:75:46:ef:b4:6d:8e:e7:53:07:23:a4:e1:e0:f0:
        e7:3b
-----BEGIN CERTIFICATE-----
MIIC1TCCAj6gAwIBAgICEBswDQYJKoZIhvcNAQEFBQAwYDELMAkGA1UEBhMCREUx
EDAOBgNVBAgTB0hhbWJ1cmcxFzAVBgNVBAoTDk9wZW5PZmZpY2Uub3JnMRQwEgYD
VQQLEwtEZXZlbG9wbWVudDEQMA4GA1UEAxMHUm9vdCAxMTAeFw0xMDAxMTkxMDE3
NDVaFw0zNTAxMTMxMDE3NDVaMIGFMQswCQYDVQQGEwJERTEQMA4GA1UECBMHSGFt
YnVyZzEXMBUGA1UEChMOT3Blbk9mZmljZS5vcmcxFDASBgNVBAsTC0RldmVsb3Bt
ZW50MTUwMwYDVQQDHiwAVQBzAGUAcgAgADIANgBcACwAIABtAGkAZABkAGwAZQAg
AHEAdQBvAHQAZTCBnzANBgkqhkiG9w0BAQEFAAOBjQAwgYkCgYEA7EwrurHluoPo
ZGxn/vmEmnFoCxCwLiwh2G3IzN6CdhW4dKBLPDnw7joIbA4MNlHtRATKK3Ywb4XU
9vB+UysXkGp7eeDCAPJf3RmPCXqiyIWVJOBBOex14ccDum3pgUiLNjjgmT5YBOMD
jeQ7lZgKI5bxllAGXXFvAuHFzeBcxHsCAwEAAaN4MHYwCwYDVR0PBAQDAgXgMB0G
A1UdDgQWBBQdo2Twk1HC8hq70C0glV4ZlExyuzAfBgNVHSMEGDAWgBToarvCkOps
cCI+9vZIGwPmvremVTAnBgNVHREEIDAepBwwGjEYMBYGA1UEAxMPVXNlciAyNiBS
b290IDExMA0GCSqGSIb3DQEBBQUAA4GBAIzBVn3ZqPevS1dKpSoyERLg2A4QOY8X
UyX1xldV5PAW8hHMr8xEayNvjirf7v/w1D8KhX4Z3vjPab6LWa08vjzXMqy6gpEo
I3G6tSkF5JjuK7tWBH+LacX5TBsLLjpGQY7aFmifx1dxjpcNsKGSrnx1Ru+0bY7n
UwcjpOHg8Oc7
-----END CERTIFICATE-----
