Certificate:
    Data:
        Version: 3 (0x2)
        Serial Number: 4124 (0x101c)
        Signature Algorithm: sha1WithRSAEncryption
        Issuer: C=DE, ST=Hamburg, O=OpenOffice.org, OU=Development, CN=Root 11
        Validity
            Not Before: Jan 19 10:19:13 2010 GMT
            Not After : Jan 13 10:19:13 2035 GMT
        Subject: C=DE, ST=Hamburg, O=OpenOffice.org, OU=Development, CN=comma, comma, comma ,
        Subject Public Key Info:
            Public Key Algorithm: rsaEncryption
            RSA Public Key: (1024 bit)
                Modulus (1024 bit):
                    00:af:2e:02:1a:b8:ed:7e:6e:27:2f:6e:ca:dc:57:
                    11:17:88:37:38:37:26:d0:fb:d0:ee:ad:f3:a8:ad:
                    f5:8a:53:04:6a:82:a7:31:b5:e6:ce:88:24:fa:22:
                    75:84:1b:a8:8c:fd:7f:63:0c:fc:13:41:82:60:a3:
                    19:33:3d:d3:18:6e:09:c5:c7:e7:e9:9e:49:dd:f4:
                    77:ef:f1:06:91:9a:c5:57:68:e5:0f:59:19:8d:53:
                    ff:cb:ae:11:33:48:5c:eb:72:e8:2f:67:ae:94:42:
                    d3:5b:2e:31:e3:6f:a7:5e:5e:9c:ea:2c:d2:c3:af:
                    66:10:34:32:e5:2d:3f:55:c1
                Exponent: 65537 (0x10001)
        X509v3 extensions:
            X509v3 Key Usage: 
                Digital Signature, Non Repudiation, Key Encipherment
            X509v3 Subject Key Identifier: 
                A1:FB:82:9C:27:AD:83:67:5E:8C:CC:A2:BA:32:3C:30:26:74:F4:CE
            X509v3 Authority Key Identifier: 
                keyid:E8:6A:BB:C2:90:EA:6C:70:22:3E:F6:F6:48:1B:03:E6:BE:B7:A6:55

            X509v3 Subject Alternative Name: 
                DirName:/CN=User 27 Root 11
    Signature Algorithm: sha1WithRSAEncryption
        c6:72:8b:f8:57:9e:b7:bf:b1:f3:99:41:1c:8c:47:a1:93:d8:
        62:8e:2d:68:6c:db:12:02:86:e0:66:65:c1:7c:c4:83:35:4c:
        16:53:fd:34:c1:3c:60:15:fc:3d:3b:90:07:68:ca:af:a1:10:
        39:c4:6b:15:a6:1a:71:51:20:ea:35:84:ef:8f:ac:51:bc:d7:
        84:d8:35:71:44:8e:8c:4f:59:76:3d:b3:5f:5c:26:9e:bc:ee:
        09:40:13:3b:38:85:02:56:7d:97:db:4d:3d:b5:a1:66:cf:df:
        19:7a:2f:71:b7:a4:12:c3:9b:df:83:f9:a8:8a:00:68:e4:3a:
        ee:25
-----BEGIN CERTIFICATE-----
MIICvTCCAiagAwIBAgICEBwwDQYJKoZIhvcNAQEFBQAwYDELMAkGA1UEBhMCREUx
EDAOBgNVBAgTB0hhbWJ1cmcxFzAVBgNVBAoTDk9wZW5PZmZpY2Uub3JnMRQwEgYD
VQQLEwtEZXZlbG9wbWVudDEQMA4GA1UEAxMHUm9vdCAxMTAeFw0xMDAxMTkxMDE5
MTNaFw0zNTAxMTMxMDE5MTNaMG4xCzAJBgNVBAYTAkRFMRAwDgYDVQQIEwdIYW1i
dXJnMRcwFQYDVQQKEw5PcGVuT2ZmaWNlLm9yZzEUMBIGA1UECxMLRGV2ZWxvcG1l
bnQxHjAcBgNVBAMTFWNvbW1hLCBjb21tYSwgY29tbWEgLDCBnzANBgkqhkiG9w0B
AQEFAAOBjQAwgYkCgYEAry4CGrjtfm4nL27K3FcRF4g3ODcm0PvQ7q3zqK31ilME
aoKnMbXmzogk+iJ1hBuojP1/Ywz8E0GCYKMZMz3TGG4Jxcfn6Z5J3fR37/EGkZrF
V2jlD1kZjVP/y64RM0hc63LoL2eulELTWy4x42+nXl6c6izSw69mEDQy5S0/VcEC
AwEAAaN4MHYwCwYDVR0PBAQDAgXgMB0GA1UdDgQWBBSh+4KcJ62DZ16MzKK6Mjww
JnT0zjAfBgNVHSMEGDAWgBToarvCkOpscCI+9vZIGwPmvremVTAnBgNVHREEIDAe
pBwwGjEYMBYGA1UEAxMPVXNlciAyNyBSb290IDExMA0GCSqGSIb3DQEBBQUAA4GB
AMZyi/hXnre/sfOZQRyMR6GT2GKOLWhs2xIChuBmZcF8xIM1TBZT/TTBPGAV/D07
kAdoyq+hEDnEaxWmGnFRIOo1hO+PrFG814TYNXFEjoxPWXY9s19cJp687glAEzs4
hQJWfZfbTT21oWbP3xl6L3G3pBLDm9+D+aiKAGjkOu4l
-----END CERTIFICATE-----
