Certificate:
    Data:
        Version: 3 (0x2)
        Serial Number: 4125 (0x101d)
        Signature Algorithm: sha1WithRSAEncryption
        Issuer: C=DE, ST=Hamburg, O=OpenOffice.org, OU=Development, CN=Root 11
        Validity
            Not Before: Jan 19 10:20:47 2010 GMT
            Not After : Jan 13 10:20:47 2035 GMT
        Subject: C=DE, ST=Hamburg, O=OpenOffice.org, OU=Development, CN=equal CN=User 28
        Subject Public Key Info:
            Public Key Algorithm: rsaEncryption
            RSA Public Key: (1024 bit)
                Modulus (1024 bit):
                    00:ae:df:12:64:ab:d9:2f:ee:21:64:b5:08:c5:c8:
                    8f:a1:ad:0e:b9:28:91:69:74:13:a5:aa:49:fe:fa:
                    02:9d:37:db:0a:3b:26:6a:20:25:3d:f9:2d:b2:3b:
                    39:c8:c6:e3:a7:aa:a1:0b:b2:1b:58:43:e6:3c:3f:
                    67:fe:bb:bd:9b:b5:d9:de:e9:ed:76:ab:fd:f5:c8:
                    15:b2:fb:a6:3f:23:ef:9f:5f:71:43:b3:be:55:1e:
                    85:5f:13:b1:6b:9d:42:d7:30:a8:d2:9b:fe:71:7a:
                    c7:d3:60:7a:cf:e2:83:75:83:b8:1c:d3:ef:ee:94:
                    3f:14:63:aa:7c:15:4e:42:1d
                Exponent: 65537 (0x10001)
        X509v3 extensions:
            X509v3 Key Usage: 
                Digital Signature, Non Repudiation, Key Encipherment
            X509v3 Subject Key Identifier: 
                3B:2D:2B:5F:2E:E6:32:23:AE:47:B7:30:25:CB:ED:B0:6D:0C:30:E4
            X509v3 Authority Key Identifier: 
                keyid:E8:6A:BB:C2:90:EA:6C:70:22:3E:F6:F6:48:1B:03:E6:BE:B7:A6:55

            X509v3 Subject Alternative Name: 
                DirName:/CN=User 28 Root 11
    Signature Algorithm: sha1WithRSAEncryption
        5b:cf:de:92:f8:ac:39:fb:0a:81:70:5b:17:d0:0d:0d:85:5e:
        2e:7d:be:d1:1a:ad:1d:99:a4:a6:f0:48:5a:7b:04:39:e2:93:
        ff:80:84:f6:a1:e6:8a:52:12:55:46:c0:57:84:d9:c3:13:92:
        61:d7:41:af:39:09:57:05:25:01:90:68:7c:7c:5c:85:c6:f2:
        fe:0e:37:e3:58:68:f9:32:fc:41:2c:35:36:f4:cf:ea:55:2d:
        52:7c:fb:37:32:35:cf:82:eb:fc:f1:39:f1:51:f1:e1:5b:d6:
        58:e1:7f:d4:50:ce:cf:07:f2:e5:f5:e2:dd:fe:55:3f:64:07:
        90:4f
-----BEGIN CERTIFICATE-----
MIICuDCCAiGgAwIBAgICEB0wDQYJKoZIhvcNAQEFBQAwYDELMAkGA1UEBhMCREUx
EDAOBgNVBAgTB0hhbWJ1cmcxFzAVBgNVBAoTDk9wZW5PZmZpY2Uub3JnMRQwEgYD
VQQLEwtEZXZlbG9wbWVudDEQMA4GA1UEAxMHUm9vdCAxMTAeFw0xMDAxMTkxMDIw
NDdaFw0zNTAxMTMxMDIwNDdaMGkxCzAJBgNVBAYTAkRFMRAwDgYDVQQIEwdIYW1i
dXJnMRcwFQYDVQQKEw5PcGVuT2ZmaWNlLm9yZzEUMBIGA1UECxMLRGV2ZWxvcG1l
bnQxGTAXBgNVBAMTEGVxdWFsIENOPVVzZXIgMjgwgZ8wDQYJKoZIhvcNAQEBBQAD
gY0AMIGJAoGBAK7fEmSr2S/uIWS1CMXIj6GtDrkokWl0E6WqSf76Ap032wo7Jmog
JT35LbI7OcjG46eqoQuyG1hD5jw/Z/67vZu12d7p7Xar/fXIFbL7pj8j759fcUOz
vlUehV8TsWudQtcwqNKb/nF6x9Nges/ig3WDuBzT7+6UPxRjqnwVTkIdAgMBAAGj
eDB2MAsGA1UdDwQEAwIF4DAdBgNVHQ4EFgQUOy0rXy7mMiOuR7cwJcvtsG0MMOQw
HwYDVR0jBBgwFoAU6Gq7wpDqbHAiPvb2SBsD5r63plUwJwYDVR0RBCAwHqQcMBox
GDAWBgNVBAMTD1VzZXIgMjggUm9vdCAxMTANBgkqhkiG9w0BAQUFAAOBgQBbz96S
+Kw5+wqBcFsX0A0NhV4ufb7RGq0dmaSm8EhaewQ54pP/gIT2oeaKUhJVRsBXhNnD
E5Jh10GvOQlXBSUBkGh8fFyFxvL+DjfjWGj5MvxBLDU29M/qVS1SfPs3MjXPguv8
8TnxUfHhW9ZY4X/UUM7PB/Ll9eLd/lU/ZAeQTw==
-----END CERTIFICATE-----
