Certificate:
    Data:
        Version: 3 (0x2)
        Serial Number: 4126 (0x101e)
        Signature Algorithm: sha1WithRSAEncryption
        Issuer: C=DE, ST=Hamburg, O=OpenOffice.org, OU=Development, CN=Root 11
        Validity
            Not Before: Jan 19 10:22:13 2010 GMT
            Not After : Jan 13 10:22:13 2035 GMT
        Subject: C=DE, ST=Hamburg, O=OpenOffice.org, OU=Development, CN=User 29+OU=ooo
        Subject Public Key Info:
            Public Key Algorithm: rsaEncryption
            RSA Public Key: (1024 bit)
                Modulus (1024 bit):
                    00:ae:12:dc:26:fe:7f:b8:3f:47:a2:dc:83:a1:70:
                    6d:ab:db:e5:3c:28:d5:18:32:2c:8d:ee:85:c6:f9:
                    f4:8b:31:34:71:de:91:79:fb:56:b4:9c:af:3e:b1:
                    c6:de:06:3f:32:fc:45:9d:9b:dd:15:0f:b5:c3:98:
                    ab:8c:1e:3d:63:7c:2a:c5:b9:38:3d:50:6c:81:9e:
                    f0:b3:5b:41:1a:ec:15:b2:7f:2b:b4:d4:42:aa:ca:
                    e6:89:b0:c6:58:bd:2d:38:f3:4d:85:c3:08:d7:45:
                    48:42:d7:fe:ee:7a:c0:22:41:c0:c6:cb:77:7c:22:
                    43:07:35:dc:88:7c:49:3a:9b
                Exponent: 65537 (0x10001)
        X509v3 extensions:
            X509v3 Key Usage: 
                Digital Signature, Non Repudiation, Key Encipherment
            X509v3 Subject Key Identifier: 
                E0:19:7F:AC:F8:6A:42:7E:84:CA:8C:84:45:75:4E:9D:A1:D1:2A:72
            X509v3 Authority Key Identifier: 
                keyid:E8:6A:BB:C2:90:EA:6C:70:22:3E:F6:F6:48:1B:03:E6:BE:B7:A6:55

            X509v3 Subject Alternative Name: 
                DirName:/CN=User 29 Root 11
    Signature Algorithm: sha1WithRSAEncryption
        85:c9:ea:82:e2:ac:f6:b3:15:51:11:bd:69:81:31:8f:ee:d3:
        f9:f4:8e:d5:27:34:20:89:76:eb:8a:5b:02:69:9b:97:89:d7:
        6b:aa:03:7f:b5:40:f9:ac:54:ce:8f:30:fd:3e:78:72:91:96:
        dc:a6:bd:64:42:f8:e4:18:1a:e3:b5:db:08:fe:1e:fc:3d:a2:
        55:21:ad:0f:1a:87:df:f2:65:87:4d:91:52:c1:46:c1:c0:7c:
        cc:81:79:97:dc:2e:41:cc:ae:8c:8e:79:4e:02:49:7c:c5:b0:
        3e:8e:d9:f0:aa:6b:a6:2f:e7:d2:21:5b:7f:57:e8:f7:f6:00:
        3c:ad
-----BEGIN CERTIFICATE-----
MIICtjCCAh+gAwIBAgICEB4wDQYJKoZIhvcNAQEFBQAwYDELMAkGA1UEBhMCREUx
EDAOBgNVBAgTB0hhbWJ1cmcxFzAVBgNVBAoTDk9wZW5PZmZpY2Uub3JnMRQwEgYD
VQQLEwtEZXZlbG9wbWVudDEQMA4GA1UEAxMHUm9vdCAxMTAeFw0xMDAxMTkxMDIy
MTNaFw0zNTAxMTMxMDIyMTNaMGcxCzAJBgNVBAYTAkRFMRAwDgYDVQQIEwdIYW1i
dXJnMRcwFQYDVQQKEw5PcGVuT2ZmaWNlLm9yZzEUMBIGA1UECxMLRGV2ZWxvcG1l
bnQxFzAVBgNVBAMTDlVzZXIgMjkrT1U9b29vMIGfMA0GCSqGSIb3DQEBAQUAA4GN
ADCBiQKBgQCuEtwm/n+4P0ei3IOhcG2r2+U8KNUYMiyN7oXG+fSLMTRx3pF5+1a0
nK8+scbeBj8y/EWdm90VD7XDmKuMHj1jfCrFuTg9UGyBnvCzW0Ea7BWyfyu01EKq
yuaJsMZYvS04802FwwjXRUhC1/7uesAiQcDGy3d8IkMHNdyIfEk6mwIDAQABo3gw
djALBgNVHQ8EBAMCBeAwHQYDVR0OBBYEFOAZf6z4akJ+hMqMhEV1Tp2h0SpyMB8G
A1UdIwQYMBaAFOhqu8KQ6mxwIj729kgbA+a+t6ZVMCcGA1UdEQQgMB6kHDAaMRgw
FgYDVQQDEw9Vc2VyIDI5IFJvb3QgMTEwDQYJKoZIhvcNAQEFBQADgYEAhcnqguKs
9rMVURG9aYExj+7T+fSO1Sc0IIl264pbAmmbl4nXa6oDf7VA+axUzo8w/T54cpGW
3Ka9ZEL45Bga47XbCP4e/D2iVSGtDxqH3/Jlh02RUsFGwcB8zIF5l9wuQcyujI55
TgJJfMWwPo7Z8Kprpi/n0iFbf1fo9/YAPK0=
-----END CERTIFICATE-----
