Certificate:
    Data:
        Version: 3 (0x2)
        Serial Number: 4127 (0x101f)
        Signature Algorithm: sha1WithRSAEncryption
        Issuer: C=DE, ST=Hamburg, O=OpenOffice.org, OU=Development, CN=Root 11
        Validity
            Not Before: Jan 19 10:26:01 2010 GMT
            Not After : Jan 13 10:26:01 2035 GMT
        Subject: C=DE, ST=Hamburg, O=OpenOffice.org, OU=Development, CN=\x00U\x00s\x00e\x00r\x00 \x003\x000\x00<\x00 \x00>\x00#\x00;\x00 \x00"\x00+\x00"
        Subject Public Key Info:
            Public Key Algorithm: rsaEncryption
            RSA Public Key: (1024 bit)
                Modulus (1024 bit):
                    00:cf:40:99:4d:a5:5d:73:2a:78:72:9c:32:94:15:
                    1e:01:40:b4:68:8f:b8:4e:38:aa:b9:82:96:5a:5c:
                    03:d5:db:09:42:46:d8:2d:f0:da:f8:1a:f0:85:10:
                    f2:cb:1f:be:50:b7:ae:6f:22:80:f2:bf:14:73:84:
                    da:30:b9:54:26:0d:72:1c:55:99:50:c6:78:a3:37:
                    15:b2:9c:03:22:dc:ea:8b:f5:07:32:f3:d9:76:64:
                    92:a3:4f:73:12:e2:43:79:0e:e6:44:17:99:79:49:
                    73:65:da:03:3d:be:db:e3:4f:ae:6c:d0:6c:e6:4a:
                    d3:83:45:5d:83:18:d5:cc:29
                Exponent: 65537 (0x10001)
        X509v3 extensions:
            X509v3 Key Usage: 
                Digital Signature, Non Repudiation, Key Encipherment
            X509v3 Subject Key Identifier: 
                D9:EA:10:1D:D3:F5:30:AD:30:0E:80:73:14:22:1A:26:35:90:DC:67
            X509v3 Authority Key Identifier: 
                keyid:E8:6A:BB:C2:90:EA:6C:70:22:3E:F6:F6:48:1B:03:E6:BE:B7:A6:55

            X509v3 Subject Alternative Name: 
                DirName:/CN=User 30 Root 11
    Signature Algorithm: sha1WithRSAEncryption
        42:3a:02:d5:7b:23:9f:cc:5b:b8:d4:c8:e8:0c:e3:0d:8a:17:
        65:b6:87:ce:c9:dc:f7:84:95:e0:17:ea:11:8b:15:30:e1:a2:
        42:6c:4e:f0:31:fa:fd:ff:03:37:d4:ec:4c:1d:29:8d:07:8a:
        c8:de:0b:d6:df:d7:2e:12:8a:00:a0:ca:be:48:af:17:36:63:
        8e:f2:cf:80:8b:a1:e2:33:ef:42:db:91:d3:8e:4b:02:55:5e:
        f7:79:11:5c:6d:ef:64:8b:53:a6:af:f5:0f:e2:75:7a:d6:85:
        f6:60:d5:7e:d6:8c:0e:37:84:a9:50:2b:c7:e6:63:bf:1d:14:
        aa:bf
-----BEGIN CERTIFICATE-----
MIICyDCCAjGgAwIBAgICEB8wDQYJKoZIhvcNAQEFBQAwYDELMAkGA1UEBhMCREUx
EDAOBgNVBAgTB0hhbWJ1cmcxFzAVBgNVBAoTDk9wZW5PZmZpY2Uub3JnMRQwEgYD
VQQLEwtEZXZlbG9wbWVudDEQMA4GA1UEAxMHUm9vdCAxMTAeFw0xMDAxMTkxMDI2
MDFaFw0zNTAxMTMxMDI2MDFaMHkxCzAJBgNVBAYTAkRFMRAwDgYDVQQIEwdIYW1i
dXJnMRcwFQYDVQQKEw5PcGVuT2ZmaWNlLm9yZzEUMBIGA1UECxMLRGV2ZWxvcG1l
bnQxKTAnBgNVBAMeIABVAHMAZQByACAAMwAwADwAIAA+ACMAOwAgACIAKwAiMIGf
MA0GCSqGSIb3DQEBAQUAA4GNADCBiQKBgQDPQJlNpV1zKnhynDKUFR4BQLRoj7hO
OKq5gpZaXAPV2wlCRtgt8Nr4GvCFEPLLH75Qt65vIoDyvxRzhNowuVQmDXIcVZlQ
xnijNxWynAMi3OqL9Qcy89l2ZJKjT3MS4kN5DuZEF5l5SXNl2gM9vtvjT65s0Gzm
StODRV2DGNXMKQIDAQABo3gwdjALBgNVHQ8EBAMCBeAwHQYDVR0OBBYEFNnqEB3T
9TCtMA6AcxQiGiY1kNxnMB8GA1UdIwQYMBaAFOhqu8KQ6mxwIj729kgbA+a+t6ZV
MCcGA1UdEQQgMB6kHDAaMRgwFgYDVQQDEw9Vc2VyIDMwIFJvb3QgMTEwDQYJKoZI
hvcNAQEFBQADgYEAQjoC1Xsjn8xbuNTI6AzjDYoXZbaHzsnc94SV4BfqEYsVMOGi
QmxO8DH6/f8DN9TsTB0pjQeKyN4L1t/XLhKKAKDKvkivFzZjjvLPgIuh4jPvQtuR
045LAlVe93kRXG3vZItTpq/1D+J1etaF9mDVftaMDjeEqVArx+Zjvx0Uqr8=
-----END CERTIFICATE-----
