Certificate:
    Data:
        Version: 3 (0x2)
        Serial Number: 4129 (0x1021)
        Signature Algorithm: sha1WithRSAEncryption
        Issuer: C=DE, ST=Hamburg, O=OpenOffice.org, OU=Development, CN=Root 11
        Validity
            Not Before: Jan 19 10:40:59 2010 GMT
            Not After : Jan 13 10:40:59 2035 GMT
        Subject: C=DE, ST=Hamburg, O=OpenOffice.org, OU=Development, CN=\x00U\x00s\x00e\x00r\x00 \x001\x004\x00 \x00"\x00,\x00m\x00i\x00d\x00d\x00l\x00e\x00 \x00q\x00u\x00o\x00t\x00e
        Subject Public Key Info:
            Public Key Algorithm: rsaEncryption
            RSA Public Key: (1024 bit)
                Modulus (1024 bit):
                    00:da:7a:30:0d:63:da:74:05:ef:3e:d2:f4:2b:1b:
                    50:e3:64:67:98:7d:2f:83:e7:77:7b:b8:72:9b:c8:
                    9e:65:de:cc:2a:7b:76:c2:08:05:7a:ce:88:3e:ed:
                    b5:75:89:36:d2:4a:bb:3b:66:ac:57:2b:15:99:c9:
                    d4:74:ca:f5:eb:ff:80:b7:9f:6b:48:2f:3b:a7:51:
                    c4:12:af:96:ca:ac:b9:ea:23:fd:93:f7:7d:5b:d1:
                    ab:7c:24:1e:fe:48:dc:33:de:45:d6:8c:86:5a:b9:
                    56:3c:e4:a9:f1:8c:d7:41:01:da:04:2a:7d:06:c3:
                    5b:a4:cc:5f:6c:ef:7c:4e:ef
                Exponent: 65537 (0x10001)
        X509v3 extensions:
            X509v3 Key Usage: 
                Digital Signature, Non Repudiation, Key Encipherment
            X509v3 Subject Key Identifier: 
                49:E2:AE:12:D7:EF:C3:B5:02:65:DD:CF:B2:62:E6:25:ED:3D:10:9C
            X509v3 Authority Key Identifier: 
                keyid:E8:6A:BB:C2:90:EA:6C:70:22:3E:F6:F6:48:1B:03:E6:BE:B7:A6:55

            X509v3 Subject Alternative Name: 
                DirName:/CN=User 14 Root 11
    Signature Algorithm: sha1WithRSAEncryption
        8b:ca:d2:93:cb:d1:cc:a9:67:a3:be:75:cf:ca:cd:22:78:cc:
        7c:f9:f1:2c:94:2c:60:bd:0f:18:16:26:fe:de:0d:19:5a:87:
        de:34:8c:1f:eb:89:37:74:63:d4:d9:cd:59:35:06:24:a5:6f:
        f2:c6:69:f4:b5:37:6d:ae:8b:d3:5d:5e:43:8f:36:7d:f8:0c:
        30:3f:74:3d:e2:85:89:75:58:36:0f:df:72:17:47:22:c6:fd:
        47:e3:d6:73:d1:40:89:e8:9a:ba:53:14:5c:3a:de:a9:85:a8:
        8f:b0:27:81:4d:87:ef:bb:6b:bf:8c:8a:71:9b:94:1d:30:d5:
        12:ed
-----BEGIN CERTIFICATE-----
MIIC1TCCAj6gAwIBAgICECEwDQYJKoZIhvcNAQEFBQAwYDELMAkGA1UEBhMCREUx
EDAOBgNVBAgTB0hhbWJ1cmcxFzAVBgNVBAoTDk9wZW5PZmZpY2Uub3JnMRQwEgYD
VQQLEwtEZXZlbG9wbWVudDEQMA4GA1UEAxMHUm9vdCAxMTAeFw0xMDAxMTkxMDQw
NTlaFw0zNTAxMTMxMDQwNTlaMIGFMQswCQYDVQQGEwJERTEQMA4GA1UECBMHSGFt
YnVyZzEXMBUGA1UEChMOT3Blbk9mZmljZS5vcmcxFDASBgNVBAsTC0RldmVsb3Bt
ZW50MTUwMwYDVQQDHiwAVQBzAGUAcgAgADEANAAgACIALABtAGkAZABkAGwAZQAg
AHEAdQBvAHQAZTCBnzANBgkqhkiG9w0BAQEFAAOBjQAwgYkCgYEA2nowDWPadAXv
PtL0KxtQ42RnmH0vg+d3e7hym8ieZd7MKnt2wggFes6IPu21dYk20kq7O2asVysV
mcnUdMr16/+At59rSC87p1HEEq+Wyqy56iP9k/d9W9GrfCQe/kjcM95F1oyGWrlW
POSp8YzXQQHaBCp9BsNbpMxfbO98Tu8CAwEAAaN4MHYwCwYDVR0PBAQDAgXgMB0G
A1UdDgQWBBRJ4q4S1+/DtQJl3c+yYuYl7T0QnDAfBgNVHSMEGDAWgBToarvCkOps
cCI+9vZIGwPmvremVTAnBgNVHREEIDAepBwwGjEYMBYGA1UEAxMPVXNlciAxNCBS
b290IDExMA0GCSqGSIb3DQEBBQUAA4GBAIvK0pPL0cypZ6O+dc/KzSJ4zHz58SyU
LGC9DxgWJv7eDRlah940jB/riTd0Y9TZzVk1BiSlb/LGafS1N22ui9NdXkOPNn34
DDA/dD3ihYl1WDYP33IXRyLG/Ufj1nPRQInomrpTFFw63qmFqI+wJ4FNh++7a7+M
inGblB0w1RLt
-----END CERTIFICATE-----
