Certificate:
    Data:
        Version: 3 (0x2)
        Serial Number: 4096 (0x1000)
        Signature Algorithm: sha1WithRSAEncryption
        Issuer: C=DE, ST=Hamburg, O=OpenOffice.org, OU=Development, CN=Sub CA 1 Root 10
        Validity
            Not Before: Nov 23 15:31:49 2009 GMT
            Not After : Nov 17 15:31:49 2034 GMT
        Subject: C=DE, ST=Hamburg, O=OpenOffice.org, OU=Development, CN=User 1 Sub CA 1 Root 10
        Subject Public Key Info:
            Public Key Algorithm: rsaEncryption
            RSA Public Key: (1024 bit)
                Modulus (1024 bit):
                    00:ce:41:53:5f:ba:d9:26:e4:45:14:74:a9:f2:9e:
                    fa:91:50:ea:fe:e7:76:76:6e:62:26:4c:a2:bd:c9:
                    98:ce:1d:b3:74:ea:95:04:ec:d8:24:ac:29:de:2d:
                    7f:2f:7f:10:94:24:d2:0c:0b:ff:d0:38:f1:a9:8f:
                    ee:25:97:bf:bd:b0:1f:24:d7:9d:7a:20:79:c0:73:
                    97:12:cb:5a:cf:6d:4f:df:4a:a8:9c:1b:be:49:63:
                    1f:b1:03:6d:c6:5f:69:5c:0d:7e:81:23:48:2a:76:
                    80:53:53:d2:03:f6:56:6d:dc:e3:cc:be:cb:0f:c3:
                    1b:b7:6e:79:33:e0:da:f6:5d
                Exponent: 65537 (0x10001)
        X509v3 extensions:
            Authority Information Access: 
                CA Issuers - URI:http://localhost:8910/demoCA/Sub_CA_1_Root_10.crt

            X509v3 CRL Distribution Points: 
                URI:http://localhost:8902/demoCA/crl/Sub_CA_1_Root_10.crl

            X509v3 Key Usage: 
                Digital Signature, Non Repudiation, Key Encipherment
            X509v3 Subject Key Identifier: 
                90:DC:ED:B0:CB:62:A1:BE:8F:23:65:01:79:14:85:22:48:70:7B:A1
            X509v3 Authority Key Identifier: 
                keyid:11:63:A1:BE:8B:E3:56:07:E6:A3:9F:23:39:72:7D:E3:22:B6:53:39

    Signature Algorithm: sha1WithRSAEncryption
        54:e3:d2:eb:dc:aa:db:8b:88:34:c6:b9:5b:f6:d8:ca:81:24:
        d0:ba:4c:c2:a7:8e:82:22:d3:68:64:c9:61:9b:0a:00:3e:d1:
        4e:cb:83:1d:b9:c7:07:6a:5e:7b:b4:ca:92:0c:93:d7:9e:99:
        e1:58:47:17:b0:a7:6d:68:5f:e5:59:f9:2a:d1:96:df:b6:9f:
        bc:47:40:f2:71:ed:71:2b:8a:6e:6f:aa:29:9f:4d:98:ee:f1:
        aa:63:b4:44:39:58:8a:f8:c2:af:8d:c1:49:92:b4:99:02:2f:
        27:c7:5b:f5:30:7c:ed:67:ff:cd:12:dc:a7:c4:8e:98:4f:2c:
        e0:05
-----BEGIN CERTIFICATE-----
MIIDODCCAqGgAwIBAgICEAAwDQYJKoZIhvcNAQEFBQAwaTELMAkGA1UEBhMCREUx
EDAOBgNVBAgTB0hhbWJ1cmcxFzAVBgNVBAoTDk9wZW5PZmZpY2Uub3JnMRQwEgYD
VQQLEwtEZXZlbG9wbWVudDEZMBcGA1UEAxMQU3ViIENBIDEgUm9vdCAxMDAeFw0w
OTExMjMxNTMxNDlaFw0zNDExMTcxNTMxNDlaMHAxCzAJBgNVBAYTAkRFMRAwDgYD
VQQIEwdIYW1idXJnMRcwFQYDVQQKEw5PcGVuT2ZmaWNlLm9yZzEUMBIGA1UECxML
RGV2ZWxvcG1lbnQxIDAeBgNVBAMTF1VzZXIgMSBTdWIgQ0EgMSBSb290IDEwMIGf
MA0GCSqGSIb3DQEBAQUAA4GNADCBiQKBgQDOQVNfutkm5EUUdKnynvqRUOr+53Z2
bmImTKK9yZjOHbN06pUE7NgkrCneLX8vfxCUJNIMC//QOPGpj+4ll7+9sB8k1516
IHnAc5cSy1rPbU/fSqicG75JYx+xA23GX2lcDX6BI0gqdoBTU9ID9lZt3OPMvssP
wxu3bnkz4Nr2XQIDAQABo4HnMIHkME0GCCsGAQUFBwEBBEEwPzA9BggrBgEFBQcw
AoYxaHR0cDovL2xvY2FsaG9zdDo4OTEwL2RlbW9DQS9TdWJfQ0FfMV9Sb290XzEw
LmNydDBGBgNVHR8EPzA9MDugOaA3hjVodHRwOi8vbG9jYWxob3N0Ojg5MDIvZGVt
b0NBL2NybC9TdWJfQ0FfMV9Sb290XzEwLmNybDALBgNVHQ8EBAMCBeAwHQYDVR0O
BBYEFJDc7bDLYqG+jyNlAXkUhSJIcHuhMB8GA1UdIwQYMBaAFBFjob6L41YH5qOf
IzlyfeMitlM5MA0GCSqGSIb3DQEBBQUAA4GBAFTj0uvcqtuLiDTGuVv22MqBJNC6
TMKnjoIi02hkyWGbCgA+0U7Lgx25xwdqXnu0ypIMk9eemeFYRxewp21oX+VZ+SrR
lt+2n7xHQPJx7XErim5vqimfTZju8apjtEQ5WIr4wq+NwUmStJkCLyfHW/UwfO1n
/80S3KfEjphPLOAF
-----END CERTIFICATE-----
