Certificate:
    Data:
        Version: 3 (0x2)
        Serial Number: 4098 (0x1002)
        Signature Algorithm: sha1WithRSAEncryption
        Issuer: C=DE, ST=Hamburg, O=OpenOffice.org, OU=Development, CN=Sub CA 2 Root 8
        Validity
            Not Before: Nov 20 16:13:32 2009 GMT
            Not After : Nov 14 16:13:32 2034 GMT
        Subject: C=DE, ST=Hamburg, O=OpenOffice.org, OU=Development, CN=User 1 Sub CA 2 Root 8
        Subject Public Key Info:
            Public Key Algorithm: rsaEncryption
            RSA Public Key: (1024 bit)
                Modulus (1024 bit):
                    00:d2:f6:25:c0:95:4b:07:1e:a0:57:67:52:36:b3:
                    3e:5d:32:7f:61:25:e9:dd:31:a1:67:6e:02:9f:4f:
                    ca:ff:82:50:64:2e:ed:4e:8d:09:73:48:91:e1:90:
                    ca:df:06:ab:f4:c3:3d:8b:7d:d1:6b:5f:f8:f8:d6:
                    c0:f4:81:59:7c:0e:53:32:a9:cd:e4:34:3c:20:a9:
                    08:b6:c2:b3:b7:91:d2:db:46:06:09:55:ff:f9:f4:
                    4e:2a:28:36:46:0e:04:f1:78:7d:a3:ff:ac:08:1b:
                    21:99:f5:b4:5b:f6:be:fd:1a:89:26:4b:eb:b9:58:
                    fc:c2:5f:44:42:a9:00:76:ff
                Exponent: 65537 (0x10001)
        X509v3 extensions:
            Authority Information Access: 
                OCSP - URI:http://localhost:8889

            X509v3 Key Usage: 
                Digital Signature, Non Repudiation, Key Encipherment
            X509v3 Subject Key Identifier: 
                9D:91:CD:7F:70:3B:00:C1:2A:FD:2F:5D:64:C4:8F:EB:0E:37:25:1B
            X509v3 Authority Key Identifier: 
                keyid:1B:AB:6B:0F:42:91:DC:1E:D4:7A:95:87:30:2D:CC:11:4F:35:B7:73

    Signature Algorithm: sha1WithRSAEncryption
        2c:68:5e:5b:2e:d7:48:ca:2a:01:b4:a0:99:0e:06:2d:e8:23:
        b3:66:31:97:cd:9e:73:61:35:af:9d:d9:2f:7c:e6:87:7f:2a:
        ae:3e:b0:99:c9:20:10:30:e3:a0:5b:28:8b:57:f2:12:3a:87:
        c1:7a:5e:c8:21:b9:ae:49:c1:aa:4f:1c:9e:a8:ae:0f:ad:a2:
        3e:aa:61:94:64:41:f8:d7:19:8d:a1:be:c0:15:04:25:2c:35:
        29:af:00:1e:40:7c:e7:d7:41:89:a7:ab:2d:dd:78:dd:c7:ba:
        d0:1b:7b:68:fa:7e:a4:0f:4c:ab:02:6e:d2:ff:b8:5b:05:f6:
        47:29
-----BEGIN CERTIFICATE-----
MIIC0jCCAjugAwIBAgICEAIwDQYJKoZIhvcNAQEFBQAwaDELMAkGA1UEBhMCREUx
EDAOBgNVBAgTB0hhbWJ1cmcxFzAVBgNVBAoTDk9wZW5PZmZpY2Uub3JnMRQwEgYD
VQQLEwtEZXZlbG9wbWVudDEYMBYGA1UEAxMPU3ViIENBIDIgUm9vdCA4MB4XDTA5
MTEyMDE2MTMzMloXDTM0MTExNDE2MTMzMlowbzELMAkGA1UEBhMCREUxEDAOBgNV
BAgTB0hhbWJ1cmcxFzAVBgNVBAoTDk9wZW5PZmZpY2Uub3JnMRQwEgYDVQQLEwtE
ZXZlbG9wbWVudDEfMB0GA1UEAxMWVXNlciAxIFN1YiBDQSAyIFJvb3QgODCBnzAN
BgkqhkiG9w0BAQEFAAOBjQAwgYkCgYEA0vYlwJVLBx6gV2dSNrM+XTJ/YSXp3TGh
Z24Cn0/K/4JQZC7tTo0Jc0iR4ZDK3war9MM9i33Ra1/4+NbA9IFZfA5TMqnN5DQ8
IKkItsKzt5HS20YGCVX/+fROKig2Rg4E8Xh9o/+sCBshmfW0W/a+/RqJJkvruVj8
wl9EQqkAdv8CAwEAAaOBgzCBgDAxBggrBgEFBQcBAQQlMCMwIQYIKwYBBQUHMAGG
FWh0dHA6Ly9sb2NhbGhvc3Q6ODg4OTALBgNVHQ8EBAMCBeAwHQYDVR0OBBYEFJ2R
zX9wOwDBKv0vXWTEj+sONyUbMB8GA1UdIwQYMBaAFBuraw9Ckdwe1HqVhzAtzBFP
NbdzMA0GCSqGSIb3DQEBBQUAA4GBACxoXlsu10jKKgG0oJkOBi3oI7NmMZfNnnNh
Na+d2S985od/Kq4+sJnJIBAw46BbKItX8hI6h8F6Xsghua5JwapPHJ6org+toj6q
YZRkQfjXGY2hvsAVBCUsNSmvAB5AfOfXQYmnqy3deN3HutAbe2j6fqQPTKsCbtL/
uFsF9kcp
-----END CERTIFICATE-----
