Certificate:
    Data:
        Version: 3 (0x2)
        Serial Number: 4099 (0x1003)
        Signature Algorithm: sha1WithRSAEncryption
        Issuer: C=DE, ST=Hamburg, O=OpenOffice.org, OU=Development, CN=Sub CA 2 Root 8
        Validity
            Not Before: Nov 20 16:16:02 2009 GMT
            Not After : Nov 14 16:16:02 2034 GMT
        Subject: C=DE, ST=Hamburg, O=OpenOffice.org, OU=Development, CN=User 2 Sub CA 2 Root 8
        Subject Public Key Info:
            Public Key Algorithm: rsaEncryption
            RSA Public Key: (1024 bit)
                Modulus (1024 bit):
                    00:b4:58:05:7c:f5:f2:48:af:35:03:82:62:af:d3:
                    ef:50:f0:0b:b1:a9:a1:9b:14:1c:54:a9:71:b4:f6:
                    e0:7d:8a:25:b3:21:e2:53:ab:a5:08:9e:ed:5a:ef:
                    8b:4f:be:75:40:b0:10:05:eb:08:3b:94:c2:57:37:
                    51:41:08:57:b9:1c:a5:2f:e9:cc:3c:a8:70:2b:eb:
                    00:92:43:64:44:18:23:9f:85:5f:7f:a5:c9:30:b3:
                    14:c0:2b:fc:94:a5:a6:ad:46:a8:37:12:20:ab:cf:
                    e0:02:74:5d:1f:2e:ec:1c:9f:27:1f:83:fc:c4:62:
                    d2:0b:6b:f4:65:21:1d:94:ff
                Exponent: 65537 (0x10001)
        X509v3 extensions:
            Authority Information Access: 
                OCSP - URI:http://localhost:8889

            X509v3 Key Usage: 
                Digital Signature, Non Repudiation, Key Encipherment
            X509v3 Subject Key Identifier: 
                1E:C7:A3:43:33:6B:EC:90:B5:66:81:64:D6:43:72:45:DB:D9:E4:57
            X509v3 Authority Key Identifier: 
                keyid:1B:AB:6B:0F:42:91:DC:1E:D4:7A:95:87:30:2D:CC:11:4F:35:B7:73

    Signature Algorithm: sha1WithRSAEncryption
        a8:66:0d:4b:6a:00:fc:31:e3:f5:8f:49:44:3d:60:26:76:2e:
        51:f8:41:35:3b:5b:7f:87:e3:00:d7:ae:85:bb:d9:81:a5:30:
        db:6a:0a:a0:d2:e8:69:f5:47:d8:19:e5:2a:bd:c5:8e:99:f9:
        57:fc:b0:64:f5:43:bc:37:4a:8e:28:70:a4:6d:7d:da:2c:9e:
        c1:55:8d:00:89:fe:f7:ef:c9:d9:8d:fe:01:3e:83:23:58:c3:
        3e:41:09:ab:5c:60:0e:9e:18:69:9e:99:7f:a2:cd:b7:95:5c:
        ea:31:02:79:32:eb:1a:07:dc:75:98:80:8e:56:f2:0a:8f:0e:
        cf:4f
-----BEGIN CERTIFICATE-----
MIIC0jCCAjugAwIBAgICEAMwDQYJKoZIhvcNAQEFBQAwaDELMAkGA1UEBhMCREUx
EDAOBgNVBAgTB0hhbWJ1cmcxFzAVBgNVBAoTDk9wZW5PZmZpY2Uub3JnMRQwEgYD
VQQLEwtEZXZlbG9wbWVudDEYMBYGA1UEAxMPU3ViIENBIDIgUm9vdCA4MB4XDTA5
MTEyMDE2MTYwMloXDTM0MTExNDE2MTYwMlowbzELMAkGA1UEBhMCREUxEDAOBgNV
BAgTB0hhbWJ1cmcxFzAVBgNVBAoTDk9wZW5PZmZpY2Uub3JnMRQwEgYDVQQLEwtE
ZXZlbG9wbWVudDEfMB0GA1UEAxMWVXNlciAyIFN1YiBDQSAyIFJvb3QgODCBnzAN
BgkqhkiG9w0BAQEFAAOBjQAwgYkCgYEAtFgFfPXySK81A4Jir9PvUPALsamhmxQc
VKlxtPbgfYolsyHiU6ulCJ7tWu+LT751QLAQBesIO5TCVzdRQQhXuRylL+nMPKhw
K+sAkkNkRBgjn4Vff6XJMLMUwCv8lKWmrUaoNxIgq8/gAnRdHy7sHJ8nH4P8xGLS
C2v0ZSEdlP8CAwEAAaOBgzCBgDAxBggrBgEFBQcBAQQlMCMwIQYIKwYBBQUHMAGG
FWh0dHA6Ly9sb2NhbGhvc3Q6ODg4OTALBgNVHQ8EBAMCBeAwHQYDVR0OBBYEFB7H
o0Mza+yQtWaBZNZDckXb2eRXMB8GA1UdIwQYMBaAFBuraw9Ckdwe1HqVhzAtzBFP
NbdzMA0GCSqGSIb3DQEBBQUAA4GBAKhmDUtqAPwx4/WPSUQ9YCZ2LlH4QTU7W3+H
4wDXroW72YGlMNtqCqDS6Gn1R9gZ5Sq9xY6Z+Vf8sGT1Q7w3So4ocKRtfdosnsFV
jQCJ/vfvydmN/gE+gyNYwz5BCatcYA6eGGmemX+izbeVXOoxAnky6xoH3HWYgI5W
8gqPDs9P
-----END CERTIFICATE-----
