Certificate:
    Data:
        Version: 3 (0x2)
        Serial Number: 4097 (0x1001)
        Signature Algorithm: sha1WithRSAEncryption
        Issuer: C=DE, ST=Hamburg, O=OpenOffice.org, OU=Development, CN=Root 8
        Validity
            Not Before: Nov 20 15:55:33 2009 GMT
            Not After : Nov 14 15:55:33 2034 GMT
        Subject: C=DE, ST=Hamburg, O=OpenOffice.org, OU=Development, CN=Sub CA 2 Root 8
        Subject Public Key Info:
            Public Key Algorithm: rsaEncryption
            RSA Public Key: (1024 bit)
                Modulus (1024 bit):
                    00:e9:91:38:d8:c1:36:e5:c1:d0:32:e8:ae:02:11:
                    97:e5:c5:07:8f:5b:46:3a:3c:d9:49:5e:9a:4b:51:
                    4c:b7:7d:e9:d1:4f:a7:15:8c:c6:10:f6:fa:5f:a9:
                    0b:1b:bc:de:56:f5:ad:a3:a0:40:f1:75:10:58:74:
                    37:f9:b7:9f:76:ca:46:96:4c:1a:81:f4:a2:ce:88:
                    8b:9e:00:6d:42:b3:d6:68:d1:67:d6:9f:b8:9c:3f:
                    43:c7:36:bf:41:88:1b:e8:74:26:a0:51:5c:e2:ee:
                    6d:9d:73:bb:0d:36:e1:5c:68:9f:21:3b:b2:aa:ed:
                    39:1d:ae:fc:b4:ca:38:c2:fb
                Exponent: 65537 (0x10001)
        X509v3 extensions:
            X509v3 Subject Key Identifier: 
                1B:AB:6B:0F:42:91:DC:1E:D4:7A:95:87:30:2D:CC:11:4F:35:B7:73
            X509v3 Authority Key Identifier: 
                keyid:D6:66:76:C9:05:FF:A9:50:88:96:60:DD:FB:C7:30:18:72:67:41:19
                DirName:/C=DE/ST=Hamburg/O=OpenOffice.org/OU=Development/CN=Root 8
                serial:B2:47:DE:6A:2A:4C:83:19

            Authority Information Access: 
                OCSP - URI:http://localhost:8888

            X509v3 Basic Constraints: critical
                CA:TRUE
    Signature Algorithm: sha1WithRSAEncryption
        89:f8:8d:a8:e5:0b:2a:fb:f3:6a:80:2c:26:a1:a7:36:7e:a0:
        c5:61:65:9d:7e:d6:47:60:b4:f6:72:e9:6e:2c:d9:f8:7f:c8:
        7a:5d:75:98:ad:88:de:e7:1b:44:a3:96:37:84:c0:b3:20:98:
        3b:b5:f6:ee:70:9c:04:7a:6c:88:05:75:7f:12:cf:b9:76:e8:
        c0:17:0c:5e:eb:10:38:1e:54:41:58:56:f6:3c:ec:07:a5:c0:
        74:24:34:af:b3:c7:b2:58:85:47:0f:6c:e4:a0:9f:c8:7b:5c:
        95:77:17:e5:ad:eb:c3:86:44:f7:81:ef:cb:58:12:1a:6a:c7:
        19:95
-----BEGIN CERTIFICATE-----
MIIDOTCCAqKgAwIBAgICEAEwDQYJKoZIhvcNAQEFBQAwXzELMAkGA1UEBhMCREUx
EDAOBgNVBAgTB0hhbWJ1cmcxFzAVBgNVBAoTDk9wZW5PZmZpY2Uub3JnMRQwEgYD
VQQLEwtEZXZlbG9wbWVudDEPMA0GA1UEAxMGUm9vdCA4MB4XDTA5MTEyMDE1NTUz
M1oXDTM0MTExNDE1NTUzM1owaDELMAkGA1UEBhMCREUxEDAOBgNVBAgTB0hhbWJ1
cmcxFzAVBgNVBAoTDk9wZW5PZmZpY2Uub3JnMRQwEgYDVQQLEwtEZXZlbG9wbWVu
dDEYMBYGA1UEAxMPU3ViIENBIDIgUm9vdCA4MIGfMA0GCSqGSIb3DQEBAQUAA4GN
ADCBiQKBgQDpkTjYwTblwdAy6K4CEZflxQePW0Y6PNlJXppLUUy3fenRT6cVjMYQ
9vpfqQsbvN5W9a2joEDxdRBYdDf5t592ykaWTBqB9KLOiIueAG1Cs9Zo0WfWn7ic
P0PHNr9BiBvodCagUVzi7m2dc7sNNuFcaJ8hO7Kq7Tkdrvy0yjjC+wIDAQABo4H6
MIH3MB0GA1UdDgQWBBQbq2sPQpHcHtR6lYcwLcwRTzW3czCBkQYDVR0jBIGJMIGG
gBTWZnbJBf+pUIiWYN37xzAYcmdBGaFjpGEwXzELMAkGA1UEBhMCREUxEDAOBgNV
BAgTB0hhbWJ1cmcxFzAVBgNVBAoTDk9wZW5PZmZpY2Uub3JnMRQwEgYDVQQLEwtE
ZXZlbG9wbWVudDEPMA0GA1UEAxMGUm9vdCA4ggkAskfeaipMgxkwMQYIKwYBBQUH
AQEEJTAjMCEGCCsGAQUFBzABhhVodHRwOi8vbG9jYWxob3N0Ojg4ODgwDwYDVR0T
AQH/BAUwAwEB/zANBgkqhkiG9w0BAQUFAAOBgQCJ+I2o5Qsq+/NqgCwmoac2fqDF
YWWdftZHYLT2culuLNn4f8h6XXWYrYje5xtEo5Y3hMCzIJg7tfbucJwEemyIBXV/
Es+5dujAFwxe6xA4HlRBWFb2POwHpcB0JDSvs8eyWIVHD2zkoJ/Ie1yVdxflrevD
hkT3ge/LWBIaascZlQ==
-----END CERTIFICATE-----
