Certificate:
    Data:
        Version: 3 (0x2)
        Serial Number: 4098 (0x1002)
        Signature Algorithm: sha1WithRSAEncryption
        Issuer: C=DE, ST=Hamburg, O=OpenOffice.org, OU=Development, CN=Sub CA 1 Root 5
        Validity
            Not Before: Nov 20 11:33:22 2009 GMT
            Not After : Nov 14 11:33:22 2034 GMT
        Subject: C=DE, ST=Hamburg, O=OpenOffice.org, OU=Development, CN=User 1 Sub CA 1 Root 5
        Subject Public Key Info:
            Public Key Algorithm: rsaEncryption
            RSA Public Key: (1024 bit)
                Modulus (1024 bit):
                    00:d3:fd:a7:4f:ea:02:e2:b4:32:80:3f:64:bb:37:
                    9d:9e:fa:86:b2:25:b3:1d:f6:5d:05:8e:2b:0c:bd:
                    60:1e:e6:52:39:4c:84:9e:93:6c:d2:b4:2d:34:1a:
                    e7:42:b6:bf:34:bd:ca:44:31:fb:06:5e:20:0a:a1:
                    22:ca:9b:4f:01:57:bd:b1:30:57:a9:0f:fc:06:ae:
                    18:6c:2d:9e:70:7a:21:2a:fd:0c:f8:03:00:32:60:
                    5d:37:c5:11:56:74:30:e4:03:3c:88:71:d5:79:d3:
                    76:02:e1:85:87:63:4b:5b:cd:c9:1f:ca:85:7a:8c:
                    3a:fd:a9:83:94:b9:6d:f6:95
                Exponent: 65537 (0x10001)
        X509v3 extensions:
            X509v3 CRL Distribution Points: 
                URI:http://localhost:8902/demoCA/crl/Sub_CA_1_Root_5.crl

            X509v3 Key Usage: 
                Digital Signature, Non Repudiation, Key Encipherment
            X509v3 Subject Key Identifier: 
                E0:53:2E:E4:6B:0B:99:C0:AD:C1:02:40:46:6C:35:EE:49:73:5D:0B
            X509v3 Authority Key Identifier: 
                keyid:01:E9:B5:99:E4:6D:F9:8C:42:3D:09:10:0F:A7:75:C6:27:78:4A:AF

    Signature Algorithm: sha1WithRSAEncryption
        5f:6a:81:3b:56:e8:6d:33:0e:1e:6a:73:b1:e8:69:b7:3f:83:
        81:6c:73:7c:9d:f7:12:c9:bf:99:16:cf:56:38:e4:58:db:28:
        a5:9c:e3:8e:ed:27:d2:da:53:41:80:2a:d4:c3:92:5d:b5:b4:
        5a:d6:17:f7:74:9d:83:13:06:7f:20:8e:50:5f:60:5b:3a:9a:
        9f:c2:58:5f:fa:07:90:df:a0:02:cf:c4:d7:7d:2e:b7:72:df:
        8f:93:ce:5a:b3:17:ba:73:93:20:64:b9:b2:ad:6e:89:63:c5:
        08:e1:a0:6a:b2:9d:1e:33:31:83:98:d1:05:7d:ec:48:72:1f:
        dd:60
-----BEGIN CERTIFICATE-----
MIIC5jCCAk+gAwIBAgICEAIwDQYJKoZIhvcNAQEFBQAwaDELMAkGA1UEBhMCREUx
EDAOBgNVBAgTB0hhbWJ1cmcxFzAVBgNVBAoTDk9wZW5PZmZpY2Uub3JnMRQwEgYD
VQQLEwtEZXZlbG9wbWVudDEYMBYGA1UEAxMPU3ViIENBIDEgUm9vdCA1MB4XDTA5
MTEyMDExMzMyMloXDTM0MTExNDExMzMyMlowbzELMAkGA1UEBhMCREUxEDAOBgNV
BAgTB0hhbWJ1cmcxFzAVBgNVBAoTDk9wZW5PZmZpY2Uub3JnMRQwEgYDVQQLEwtE
ZXZlbG9wbWVudDEfMB0GA1UEAxMWVXNlciAxIFN1YiBDQSAxIFJvb3QgNTCBnzAN
BgkqhkiG9w0BAQEFAAOBjQAwgYkCgYEA0/2nT+oC4rQygD9kuzednvqGsiWzHfZd
BY4rDL1gHuZSOUyEnpNs0rQtNBrnQra/NL3KRDH7Bl4gCqEiyptPAVe9sTBXqQ/8
Bq4YbC2ecHohKv0M+AMAMmBdN8URVnQw5AM8iHHVedN2AuGFh2NLW83JH8qFeow6
/amDlLlt9pUCAwEAAaOBlzCBlDBFBgNVHR8EPjA8MDqgOKA2hjRodHRwOi8vbG9j
YWxob3N0Ojg5MDIvZGVtb0NBL2NybC9TdWJfQ0FfMV9Sb290XzUuY3JsMAsGA1Ud
DwQEAwIF4DAdBgNVHQ4EFgQU4FMu5GsLmcCtwQJARmw17klzXQswHwYDVR0jBBgw
FoAUAem1meRt+YxCPQkQD6d1xid4Sq8wDQYJKoZIhvcNAQEFBQADgYEAX2qBO1bo
bTMOHmpzsehptz+DgWxzfJ33Esm/mRbPVjjkWNsopZzjju0n0tpTQYAq1MOSXbW0
WtYX93SdgxMGfyCOUF9gWzqan8JYX/oHkN+gAs/E130ut3Lfj5POWrMXunOTIGS5
sq1uiWPFCOGgarKdHjMxg5jRBX3sSHIf3WA=
-----END CERTIFICATE-----
