Certificate:
    Data:
        Version: 3 (0x2)
        Serial Number: 4096 (0x1000)
        Signature Algorithm: sha1WithRSAEncryption
        Issuer: C=DE, ST=Hamburg, O=OpenOffice.org, OU=Development, CN=Root 4
        Validity
            Not Before: Nov 20 08:37:27 2009 GMT
            Not After : Nov 14 08:37:27 2034 GMT
        Subject: C=DE, ST=Hamburg, O=OpenOffice.org, OU=Development, CN=Sub CA 1 Root 4
        Subject Public Key Info:
            Public Key Algorithm: rsaEncryption
            RSA Public Key: (1024 bit)
                Modulus (1024 bit):
                    00:da:b0:21:94:89:b0:00:89:cb:69:59:9b:0d:fe:
                    1f:b9:a0:a8:44:92:55:5f:0b:d5:e5:08:63:bd:47:
                    6b:11:4d:b1:a8:12:6f:c1:cf:cb:9e:ae:e2:c1:03:
                    68:46:59:0b:96:7c:21:45:9b:14:81:d8:f1:83:70:
                    6b:3d:b4:56:65:49:87:1d:ab:e2:08:6a:49:66:0e:
                    59:b4:da:7a:3f:72:23:b8:1f:fb:78:f5:f0:2d:c4:
                    fe:d9:94:6e:2e:c3:6e:95:ba:38:60:d1:0b:fa:16:
                    c7:02:71:ef:3e:71:72:63:26:56:35:1e:8b:ec:47:
                    87:25:6e:bc:90:d0:8b:37:2d
                Exponent: 65537 (0x10001)
        X509v3 extensions:
            X509v3 Subject Key Identifier: 
                96:9A:2D:06:F6:76:4F:83:68:7B:9C:69:C4:18:BB:4A:EB:46:38:E4
            X509v3 Authority Key Identifier: 
                keyid:BA:8D:A1:97:DC:C4:39:1F:90:B5:51:6B:10:19:F2:46:0D:A9:65:8E
                DirName:/C=DE/ST=Hamburg/O=OpenOffice.org/OU=Development/CN=Root 4
                serial:A2:93:46:74:3B:A6:E3:AD

            X509v3 Basic Constraints: critical
                CA:TRUE
    Signature Algorithm: sha1WithRSAEncryption
        45:77:ba:6b:b6:a7:2a:0f:6b:38:90:9f:0a:18:11:c7:54:7b:
        c9:3b:9a:93:90:96:f0:04:0a:56:87:30:e0:f5:d8:84:40:39:
        90:85:ca:e7:38:1b:d8:df:2f:bd:73:91:13:cb:a6:c9:b0:7a:
        f7:59:77:6b:9a:d5:86:78:06:dc:40:14:ce:ea:43:a8:ae:ed:
        a2:03:64:51:3a:47:7a:9f:df:2d:65:49:56:a5:39:cf:28:2a:
        ac:ab:fd:e1:93:fd:3e:56:e8:eb:7a:11:a8:f7:f9:1a:a1:83:
        1f:92:f7:da:4e:c6:d9:67:dd:67:ff:be:6f:e5:24:e1:6e:cc:
        94:3c
-----BEGIN CERTIFICATE-----
MIIDBjCCAm+gAwIBAgICEAAwDQYJKoZIhvcNAQEFBQAwXzELMAkGA1UEBhMCREUx
EDAOBgNVBAgTB0hhbWJ1cmcxFzAVBgNVBAoTDk9wZW5PZmZpY2Uub3JnMRQwEgYD
VQQLEwtEZXZlbG9wbWVudDEPMA0GA1UEAxMGUm9vdCA0MB4XDTA5MTEyMDA4Mzcy
N1oXDTM0MTExNDA4MzcyN1owaDELMAkGA1UEBhMCREUxEDAOBgNVBAgTB0hhbWJ1
cmcxFzAVBgNVBAoTDk9wZW5PZmZpY2Uub3JnMRQwEgYDVQQLEwtEZXZlbG9wbWVu
dDEYMBYGA1UEAxMPU3ViIENBIDEgUm9vdCA0MIGfMA0GCSqGSIb3DQEBAQUAA4GN
ADCBiQKBgQDasCGUibAAictpWZsN/h+5oKhEklVfC9XlCGO9R2sRTbGoEm/Bz8ue
ruLBA2hGWQuWfCFFmxSB2PGDcGs9tFZlSYcdq+IIaklmDlm02no/ciO4H/t49fAt
xP7ZlG4uw26Vujhg0Qv6FscCce8+cXJjJlY1HovsR4clbryQ0Is3LQIDAQABo4HH
MIHEMB0GA1UdDgQWBBSWmi0G9nZPg2h7nGnEGLtK60Y45DCBkQYDVR0jBIGJMIGG
gBS6jaGX3MQ5H5C1UWsQGfJGDalljqFjpGEwXzELMAkGA1UEBhMCREUxEDAOBgNV
BAgTB0hhbWJ1cmcxFzAVBgNVBAoTDk9wZW5PZmZpY2Uub3JnMRQwEgYDVQQLEwtE
ZXZlbG9wbWVudDEPMA0GA1UEAxMGUm9vdCA0ggkAopNGdDum460wDwYDVR0TAQH/
BAUwAwEB/zANBgkqhkiG9w0BAQUFAAOBgQBFd7prtqcqD2s4kJ8KGBHHVHvJO5qT
kJbwBApWhzDg9diEQDmQhcrnOBvY3y+9c5ETy6bJsHr3WXdrmtWGeAbcQBTO6kOo
ru2iA2RROkd6n98tZUlWpTnPKCqsq/3hk/0+VujrehGo9/kaoYMfkvfaTsbZZ91n
/75v5SThbsyUPA==
-----END CERTIFICATE-----
