Certificate:
    Data:
        Version: 3 (0x2)
        Serial Number: 4096 (0x1000)
        Signature Algorithm: sha1WithRSAEncryption
        Issuer: C=DE, ST=Hamburg, O=OpenOffice.org, OU=Development, CN=Sub CA 1 Root 6
        Validity
            Not Before: Nov 20 12:37:43 2009 GMT
            Not After : Nov 14 12:37:43 2034 GMT
        Subject: C=DE, ST=Hamburg, O=OpenOffice.org, OU=Development, CN=User 1 Sub CA 1 Root 6
        Subject Public Key Info:
            Public Key Algorithm: rsaEncryption
            RSA Public Key: (1024 bit)
                Modulus (1024 bit):
                    00:bb:ac:68:10:41:28:94:fd:fe:39:5e:63:cf:eb:
                    9f:2b:20:82:f3:86:d2:e1:38:05:7e:95:cc:46:e5:
                    42:8b:5c:0d:2c:ad:ad:44:c0:4c:2f:7c:75:e8:bd:
                    aa:cd:f2:05:16:18:a5:a3:fa:e7:a0:ba:57:31:e2:
                    b0:4d:85:9d:60:e4:41:92:49:3f:e1:79:47:52:e8:
                    9e:71:be:88:10:6c:30:89:9f:55:84:9d:83:d0:c9:
                    11:66:95:33:8b:44:38:86:45:05:b3:3a:54:c4:cf:
                    4e:72:4c:00:07:d7:59:3a:8d:2f:cd:5e:0c:a0:95:
                    be:00:85:7a:a4:42:c2:f3:b7
                Exponent: 65537 (0x10001)
        X509v3 extensions:
            X509v3 CRL Distribution Points: 
                URI:http://localhost:8902/demoCA/crl/Sub_CA_1_Root_6.crl

            X509v3 Key Usage: 
                Digital Signature, Non Repudiation, Key Encipherment
            X509v3 Subject Key Identifier: 
                57:51:A4:44:AE:92:01:3C:9F:7E:82:67:C0:E5:B9:D7:A6:8F:A5:79
            X509v3 Authority Key Identifier: 
                keyid:89:8C:D7:71:EB:67:78:4E:D6:01:35:B2:AC:A1:B4:88:43:CE:70:A7

    Signature Algorithm: sha1WithRSAEncryption
        7b:de:f2:2b:d7:94:ce:12:e2:f9:a7:b2:91:08:c6:51:3f:bc:
        e2:87:ed:79:6d:3b:f5:38:6e:02:d4:63:e6:b8:a7:e5:df:f4:
        6e:b0:8a:bd:bb:b1:0b:e0:c2:cf:fa:af:0a:6a:a5:1f:28:ff:
        de:21:bd:8a:f7:ec:48:35:bb:ab:97:c2:7a:31:6d:d1:73:8e:
        ae:74:9b:94:86:73:06:06:da:6a:2c:82:04:b1:49:19:62:a9:
        05:e5:e7:2c:68:a1:3b:f4:bf:80:85:5b:1b:dc:21:7b:3d:c1:
        ee:97:6c:72:35:2d:80:19:90:b4:ab:19:34:bb:88:5e:ea:70:
        27:df
-----BEGIN CERTIFICATE-----
MIIC5jCCAk+gAwIBAgICEAAwDQYJKoZIhvcNAQEFBQAwaDELMAkGA1UEBhMCREUx
EDAOBgNVBAgTB0hhbWJ1cmcxFzAVBgNVBAoTDk9wZW5PZmZpY2Uub3JnMRQwEgYD
VQQLEwtEZXZlbG9wbWVudDEYMBYGA1UEAxMPU3ViIENBIDEgUm9vdCA2MB4XDTA5
MTEyMDEyMzc0M1oXDTM0MTExNDEyMzc0M1owbzELMAkGA1UEBhMCREUxEDAOBgNV
BAgTB0hhbWJ1cmcxFzAVBgNVBAoTDk9wZW5PZmZpY2Uub3JnMRQwEgYDVQQLEwtE
ZXZlbG9wbWVudDEfMB0GA1UEAxMWVXNlciAxIFN1YiBDQSAxIFJvb3QgNjCBnzAN
BgkqhkiG9w0BAQEFAAOBjQAwgYkCgYEAu6xoEEEolP3+OV5jz+ufKyCC84bS4TgF
fpXMRuVCi1wNLK2tRMBML3x16L2qzfIFFhilo/rnoLpXMeKwTYWdYORBkkk/4XlH
Uuiecb6IEGwwiZ9VhJ2D0MkRZpUzi0Q4hkUFszpUxM9OckwAB9dZOo0vzV4MoJW+
AIV6pELC87cCAwEAAaOBlzCBlDBFBgNVHR8EPjA8MDqgOKA2hjRodHRwOi8vbG9j
YWxob3N0Ojg5MDIvZGVtb0NBL2NybC9TdWJfQ0FfMV9Sb290XzYuY3JsMAsGA1Ud
DwQEAwIF4DAdBgNVHQ4EFgQUV1GkRK6SATyffoJnwOW516aPpXkwHwYDVR0jBBgw
FoAUiYzXcetneE7WATWyrKG0iEPOcKcwDQYJKoZIhvcNAQEFBQADgYEAe97yK9eU
zhLi+aeykQjGUT+84ofteW079ThuAtRj5rin5d/0brCKvbuxC+DCz/qvCmqlHyj/
3iG9ivfsSDW7q5fCejFt0XOOrnSblIZzBgbaaiyCBLFJGWKpBeXnLGihO/S/gIVb
G9whez3B7pdscjUtgBmQtKsZNLuIXupwJ98=
-----END CERTIFICATE-----
